000000000015ff30 D __ZGVZN5Eigen8internal20manage_caching_sizesENS_6ActionEPlS2_S2_E12m_cacheSizes
000000000013c560 D __ZGVZN7libfive10EdgeTablesILj2EE8instanceEvE9singleton
000000000013e8d8 D __ZGVZN7libfive10EdgeTablesILj3EE8instanceEvE9singleton
000000000015ff50 D __ZGVZN7libfive12OracleClause9installedEvE1m
0000000000141e00 D __ZGVZN7libfive13MarchingTableILj2EE8instanceEvE9singleton
000000000015ff08 D __ZGVZN7libfive13MarchingTableILj3EE8instanceEvE9singleton
000000000013e910 D __ZGVZN7libfive14ManifoldTablesILj2EE8manifoldEjE9singleton
000000000013e948 D __ZGVZN7libfive14ManifoldTablesILj3EE8manifoldEjE9singleton
000000000013f038 D __ZGVZN7libfive14NeighborTablesILj2EE8instanceEvE9singleton
00000000001417b8 D __ZGVZN7libfive14NeighborTablesILj3EE8instanceEvE9singleton
000000000013c090 D __ZGVZN7libfive6DCTreeILj2EE14singletonEmptyEvE5empty
000000000013c120 D __ZGVZN7libfive6DCTreeILj2EE15singletonFilledEvE6filled
000000000013e9f0 D __ZGVZN7libfive6DCTreeILj3EE14singletonEmptyEvE5empty
000000000013ea98 D __ZGVZN7libfive6DCTreeILj3EE15singletonFilledEvE6filled
000000000013c008 D __ZGVZN7libfive8Interval3powERKS0_S2_E19nanOnZeroToNegative
0000000000047340 T __ZN7libfive10EdgeTablesILj2EE8boundaryENS_13NeighborIndexE
0000000000047250 T __ZN7libfive10EdgeTablesILj2EE8instanceEv
00000000000472c0 T __ZN7libfive10EdgeTablesILj2EE9neighborsENS_13NeighborIndexE
00000000000471e0 T __ZN7libfive10EdgeTablesILj2EE9subspacesENS_13NeighborIndexE
00000000000473c0 T __ZN7libfive10EdgeTablesILj2EEC1Ev
00000000000473d0 T __ZN7libfive10EdgeTablesILj2EEC2Ev
0000000000047850 T __ZN7libfive10EdgeTablesILj3EE8boundaryENS_13NeighborIndexE
0000000000047760 T __ZN7libfive10EdgeTablesILj3EE8instanceEv
00000000000477d0 T __ZN7libfive10EdgeTablesILj3EE9neighborsENS_13NeighborIndexE
00000000000476f0 T __ZN7libfive10EdgeTablesILj3EE9subspacesENS_13NeighborIndexE
00000000000478d0 T __ZN7libfive10EdgeTablesILj3EEC1Ev
00000000000478e0 T __ZN7libfive10EdgeTablesILj3EEC2Ev
0000000000098b50 T __ZN7libfive10HybridLeafILj2EE5resetEv
0000000000098c70 T __ZN7libfive10HybridLeafILj2EEC1Ev
0000000000098a80 T __ZN7libfive10HybridLeafILj2EEC2Ev
0000000000098d60 T __ZN7libfive10HybridLeafILj2EEdaEPv
0000000000098d40 T __ZN7libfive10HybridLeafILj2EEnaEm
00000000000a2d50 T __ZN7libfive10HybridLeafILj3EE5resetEv
00000000000a2e50 T __ZN7libfive10HybridLeafILj3EEC1Ev
00000000000a2cc0 T __ZN7libfive10HybridLeafILj3EEC2Ev
00000000000a2f00 T __ZN7libfive10HybridLeafILj3EEdaEPv
00000000000a2ee0 T __ZN7libfive10HybridLeafILj3EEnaEm
0000000000097af0 T __ZN7libfive10HybridTreeILj2EE10accumulateEPNS_9EvaluatorERKN5Eigen5ArrayIdLi2ELi256ELi0ELi2ELi256EEERKNSt3__110shared_ptrINS_4TapeEEEjPNS_13NeighborIndexEb
0000000000098570 T __ZN7libfive10HybridTreeILj2EE11isSingletonEPKS1_
0000000000096220 T __ZN7libfive10HybridTreeILj2EE12evalIntervalEPNS_9EvaluatorERKNSt3__110shared_ptrINS_4TapeEEERNS_10ObjectPoolIJS1_NS_10HybridLeafILj2EEEEEE
0000000000098540 T __ZN7libfive10HybridTreeILj2EE13hasSingletonsEv
0000000000098580 T __ZN7libfive10HybridTreeILj2EE14processCornersEPNS_9EvaluatorERKNSt3__110shared_ptrINS_4TapeEEE
0000000000098550 T __ZN7libfive10HybridTreeILj2EE14singletonEmptyEv
0000000000096530 T __ZN7libfive10HybridTreeILj2EE15collectChildrenEPNS_9EvaluatorERKNSt3__110shared_ptrINS_4TapeEEERNS_10ObjectPoolIJS1_NS_10HybridLeafILj2EEEEEEd
0000000000098560 T __ZN7libfive10HybridTreeILj2EE15singletonFilledEv
00000000000972c0 T __ZN7libfive10HybridTreeILj2EE19placeDistanceVertexEPNS_9EvaluatorERKNSt3__110shared_ptrINS_4TapeEEENS_13NeighborIndexERKN5Eigen6MatrixIdLi2ELi1ELi0ELi2ELi1EEE
00000000000961b0 T __ZN7libfive10HybridTreeILj2EE5emptyEv
0000000000096470 T __ZN7libfive10HybridTreeILj2EE8evalLeafEPNS_9EvaluatorERKNSt3__110shared_ptrINS_4TapeEEERNS_10ObjectPoolIJS1_NS_10HybridLeafILj2EEEEEERKNS_15HybridNeighborsILj2EEE
0000000000096390 T __ZN7libfive10HybridTreeILj2EE9buildLeafEPNS_9EvaluatorERKNSt3__110shared_ptrINS_4TapeEEERNS_10ObjectPoolIJS1_NS_10HybridLeafILj2EEEEEE
0000000000097090 T __ZN7libfive10HybridTreeILj2EE9releaseToERNS_10ObjectPoolIJS1_NS_10HybridLeafILj2EEEEEE
0000000000096130 T __ZN7libfive10HybridTreeILj2EEC1EPS1_jRKNS_6RegionILj2EEE
0000000000096060 T __ZN7libfive10HybridTreeILj2EEC1Ev
00000000000960b0 T __ZN7libfive10HybridTreeILj2EEC2EPS1_jRKNS_6RegionILj2EEE
0000000000096010 T __ZN7libfive10HybridTreeILj2EEC2Ev
0000000000097080 T __ZN7libfive10HybridTreeILj2EEdaEPv
0000000000097060 T __ZN7libfive10HybridTreeILj2EEnaEm
00000000000a1ee0 T __ZN7libfive10HybridTreeILj3EE10accumulateEPNS_9EvaluatorERKN5Eigen5ArrayIdLi3ELi256ELi0ELi3ELi256EEERKNSt3__110shared_ptrINS_4TapeEEEjPNS_13NeighborIndexEb
00000000000a2710 T __ZN7libfive10HybridTreeILj3EE11isSingletonEPKS1_
00000000000a0210 T __ZN7libfive10HybridTreeILj3EE12evalIntervalEPNS_9EvaluatorERKNSt3__110shared_ptrINS_4TapeEEERNS_10ObjectPoolIJS1_NS_10HybridLeafILj3EEEEEE
00000000000a26e0 T __ZN7libfive10HybridTreeILj3EE13hasSingletonsEv
00000000000a2720 T __ZN7libfive10HybridTreeILj3EE14processCornersEPNS_9EvaluatorERKNSt3__110shared_ptrINS_4TapeEEE
00000000000a26f0 T __ZN7libfive10HybridTreeILj3EE14singletonEmptyEv
00000000000a0670 T __ZN7libfive10HybridTreeILj3EE15collectChildrenEPNS_9EvaluatorERKNSt3__110shared_ptrINS_4TapeEEERNS_10ObjectPoolIJS1_NS_10HybridLeafILj3EEEEEEd
00000000000a2700 T __ZN7libfive10HybridTreeILj3EE15singletonFilledEv
00000000000a16c0 T __ZN7libfive10HybridTreeILj3EE19placeDistanceVertexEPNS_9EvaluatorERKNSt3__110shared_ptrINS_4TapeEEENS_13NeighborIndexERKN5Eigen6MatrixIdLi3ELi1ELi0ELi3ELi1EEE
00000000000a0180 T __ZN7libfive10HybridTreeILj3EE5emptyEv
00000000000a04e0 T __ZN7libfive10HybridTreeILj3EE8evalLeafEPNS_9EvaluatorERKNSt3__110shared_ptrINS_4TapeEEERNS_10ObjectPoolIJS1_NS_10HybridLeafILj3EEEEEERKNS_15HybridNeighborsILj3EEE
00000000000a0380 T __ZN7libfive10HybridTreeILj3EE9buildLeafEPNS_9EvaluatorERKNSt3__110shared_ptrINS_4TapeEEERNS_10ObjectPoolIJS1_NS_10HybridLeafILj3EEEEEE
00000000000a1490 T __ZN7libfive10HybridTreeILj3EE9releaseToERNS_10ObjectPoolIJS1_NS_10HybridLeafILj3EEEEEE
00000000000a00c0 T __ZN7libfive10HybridTreeILj3EEC1EPS1_jRKNS_6RegionILj3EEE
000000000009ff90 T __ZN7libfive10HybridTreeILj3EEC1Ev
00000000000a0000 T __ZN7libfive10HybridTreeILj3EEC2EPS1_jRKNS_6RegionILj3EEE
000000000009ff20 T __ZN7libfive10HybridTreeILj3EEC2Ev
00000000000a1480 T __ZN7libfive10HybridTreeILj3EEdaEPv
00000000000a1460 T __ZN7libfive10HybridTreeILj3EEnaEm
00000000000c69c0 T __ZN7libfive10ObjectPoolIJNS_10HybridTreeILj2EEENS_10HybridLeafILj2EEEEE3getIJPS2_jNS_6RegionILj2EEEEEES7_DpT_
00000000000c5c70 T __ZN7libfive10ObjectPoolIJNS_10HybridTreeILj2EEENS_10HybridLeafILj2EEEEE3putEPS2_
00000000000c5c50 T __ZN7libfive10ObjectPoolIJNS_10HybridTreeILj2EEENS_10HybridLeafILj2EEEEE4nextEv
00000000000c5fe0 T __ZN7libfive10ObjectPoolIJNS_10HybridTreeILj2EEENS_10HybridLeafILj2EEEEE5claimERS5_
00000000000c5e40 T __ZN7libfive10ObjectPoolIJNS_10HybridTreeILj2EEENS_10HybridLeafILj2EEEEE5resetEjPNS_15ProgressHandlerE
00000000000c5fd0 T __ZN7libfive10ObjectPoolIJNS_10HybridTreeILj2EEENS_10HybridLeafILj2EEEEED1Ev
00000000000c5d90 T __ZN7libfive10ObjectPoolIJNS_10HybridTreeILj2EEENS_10HybridLeafILj2EEEEED2Ev
00000000000c5a60 T __ZN7libfive10ObjectPoolIJNS_10HybridTreeILj2EEENS_10HybridLeafILj2EEEEEaSEOS5_
00000000000c8a00 T __ZN7libfive10ObjectPoolIJNS_10HybridTreeILj3EEENS_10HybridLeafILj3EEEEE3getIJPS2_jNS_6RegionILj3EEEEEES7_DpT_
00000000000c7cb0 T __ZN7libfive10ObjectPoolIJNS_10HybridTreeILj3EEENS_10HybridLeafILj3EEEEE3putEPS2_
00000000000c7c90 T __ZN7libfive10ObjectPoolIJNS_10HybridTreeILj3EEENS_10HybridLeafILj3EEEEE4nextEv
00000000000c8020 T __ZN7libfive10ObjectPoolIJNS_10HybridTreeILj3EEENS_10HybridLeafILj3EEEEE5claimERS5_
00000000000c7e80 T __ZN7libfive10ObjectPoolIJNS_10HybridTreeILj3EEENS_10HybridLeafILj3EEEEE5resetEjPNS_15ProgressHandlerE
00000000000c8010 T __ZN7libfive10ObjectPoolIJNS_10HybridTreeILj3EEENS_10HybridLeafILj3EEEEED1Ev
00000000000c7dd0 T __ZN7libfive10ObjectPoolIJNS_10HybridTreeILj3EEENS_10HybridLeafILj3EEEEED2Ev
00000000000c7aa0 T __ZN7libfive10ObjectPoolIJNS_10HybridTreeILj3EEENS_10HybridLeafILj3EEEEEaSEOS5_
00000000000ed150 T __ZN7libfive10ObjectPoolIJNS_11SimplexLeafILj2EEENS_19SimplexLeafSubspaceILj2EEEEE3getIJEEEPS2_DpT_
00000000000ec0b0 T __ZN7libfive10ObjectPoolIJNS_11SimplexLeafILj2EEENS_19SimplexLeafSubspaceILj2EEEEE3putEPS2_
00000000000ebf90 T __ZN7libfive10ObjectPoolIJNS_11SimplexLeafILj2EEENS_19SimplexLeafSubspaceILj2EEEEE4nextEv
00000000000eb990 T __ZN7libfive10ObjectPoolIJNS_11SimplexLeafILj2EEENS_19SimplexLeafSubspaceILj2EEEEE5claimERS5_
00000000000ebe00 T __ZN7libfive10ObjectPoolIJNS_11SimplexLeafILj2EEENS_19SimplexLeafSubspaceILj2EEEEE5resetEjPNS_15ProgressHandlerE
00000000000ec230 T __ZN7libfive10ObjectPoolIJNS_11SimplexLeafILj2EEENS_19SimplexLeafSubspaceILj2EEEEED1Ev
00000000000eb410 T __ZN7libfive10ObjectPoolIJNS_11SimplexLeafILj2EEENS_19SimplexLeafSubspaceILj2EEEEED2Ev
00000000000eaec0 T __ZN7libfive10ObjectPoolIJNS_11SimplexLeafILj2EEENS_19SimplexLeafSubspaceILj2EEEEEaSEOS5_
00000000000f0ad0 T __ZN7libfive10ObjectPoolIJNS_11SimplexLeafILj3EEENS_19SimplexLeafSubspaceILj3EEEEE3getIJEEEPS2_DpT_
00000000000efa30 T __ZN7libfive10ObjectPoolIJNS_11SimplexLeafILj3EEENS_19SimplexLeafSubspaceILj3EEEEE3putEPS2_
00000000000ef910 T __ZN7libfive10ObjectPoolIJNS_11SimplexLeafILj3EEENS_19SimplexLeafSubspaceILj3EEEEE4nextEv
00000000000ef310 T __ZN7libfive10ObjectPoolIJNS_11SimplexLeafILj3EEENS_19SimplexLeafSubspaceILj3EEEEE5claimERS5_
00000000000ef780 T __ZN7libfive10ObjectPoolIJNS_11SimplexLeafILj3EEENS_19SimplexLeafSubspaceILj3EEEEE5resetEjPNS_15ProgressHandlerE
00000000000efbb0 T __ZN7libfive10ObjectPoolIJNS_11SimplexLeafILj3EEENS_19SimplexLeafSubspaceILj3EEEEED1Ev
00000000000eed90 T __ZN7libfive10ObjectPoolIJNS_11SimplexLeafILj3EEENS_19SimplexLeafSubspaceILj3EEEEED2Ev
00000000000ee840 T __ZN7libfive10ObjectPoolIJNS_11SimplexLeafILj3EEENS_19SimplexLeafSubspaceILj3EEEEEaSEOS5_
00000000000ece80 T __ZN7libfive10ObjectPoolIJNS_11SimplexTreeILj2EEENS_11SimplexLeafILj2EEENS_19SimplexLeafSubspaceILj2EEEEE3getIJPS2_jNS_6RegionILj2EEEEEES9_DpT_
00000000000eb0c0 T __ZN7libfive10ObjectPoolIJNS_11SimplexTreeILj2EEENS_11SimplexLeafILj2EEENS_19SimplexLeafSubspaceILj2EEEEE3putEPS2_
00000000000eaeb0 T __ZN7libfive10ObjectPoolIJNS_11SimplexTreeILj2EEENS_11SimplexLeafILj2EEENS_19SimplexLeafSubspaceILj2EEEEE4nextEv
00000000000eb4d0 T __ZN7libfive10ObjectPoolIJNS_11SimplexTreeILj2EEENS_11SimplexLeafILj2EEENS_19SimplexLeafSubspaceILj2EEEEE5claimERS7_
00000000000eb270 T __ZN7libfive10ObjectPoolIJNS_11SimplexTreeILj2EEENS_11SimplexLeafILj2EEENS_19SimplexLeafSubspaceILj2EEEEE5resetEjPNS_15ProgressHandlerE
00000000000eb4c0 T __ZN7libfive10ObjectPoolIJNS_11SimplexTreeILj2EEENS_11SimplexLeafILj2EEENS_19SimplexLeafSubspaceILj2EEEEED1Ev
00000000000eb1f0 T __ZN7libfive10ObjectPoolIJNS_11SimplexTreeILj2EEENS_11SimplexLeafILj2EEENS_19SimplexLeafSubspaceILj2EEEEED2Ev
00000000000ead50 T __ZN7libfive10ObjectPoolIJNS_11SimplexTreeILj2EEENS_11SimplexLeafILj2EEENS_19SimplexLeafSubspaceILj2EEEEEaSEOS7_
00000000000f0800 T __ZN7libfive10ObjectPoolIJNS_11SimplexTreeILj3EEENS_11SimplexLeafILj3EEENS_19SimplexLeafSubspaceILj3EEEEE3getIJPS2_jNS_6RegionILj3EEEEEES9_DpT_
00000000000eea40 T __ZN7libfive10ObjectPoolIJNS_11SimplexTreeILj3EEENS_11SimplexLeafILj3EEENS_19SimplexLeafSubspaceILj3EEEEE3putEPS2_
00000000000ee830 T __ZN7libfive10ObjectPoolIJNS_11SimplexTreeILj3EEENS_11SimplexLeafILj3EEENS_19SimplexLeafSubspaceILj3EEEEE4nextEv
00000000000eee50 T __ZN7libfive10ObjectPoolIJNS_11SimplexTreeILj3EEENS_11SimplexLeafILj3EEENS_19SimplexLeafSubspaceILj3EEEEE5claimERS7_
00000000000eebf0 T __ZN7libfive10ObjectPoolIJNS_11SimplexTreeILj3EEENS_11SimplexLeafILj3EEENS_19SimplexLeafSubspaceILj3EEEEE5resetEjPNS_15ProgressHandlerE
00000000000eee40 T __ZN7libfive10ObjectPoolIJNS_11SimplexTreeILj3EEENS_11SimplexLeafILj3EEENS_19SimplexLeafSubspaceILj3EEEEED1Ev
00000000000eeb70 T __ZN7libfive10ObjectPoolIJNS_11SimplexTreeILj3EEENS_11SimplexLeafILj3EEENS_19SimplexLeafSubspaceILj3EEEEED2Ev
00000000000ee6d0 T __ZN7libfive10ObjectPoolIJNS_11SimplexTreeILj3EEENS_11SimplexLeafILj3EEENS_19SimplexLeafSubspaceILj3EEEEEaSEOS7_
0000000000089ed0 T __ZN7libfive10ObjectPoolIJNS_12IntersectionILj2EEEEE3getIJEEEPS2_DpT_
00000000000894e0 T __ZN7libfive10ObjectPoolIJNS_12IntersectionILj2EEEEE3putEPS2_
00000000000894c0 T __ZN7libfive10ObjectPoolIJNS_12IntersectionILj2EEEEE4nextEv
0000000000088f80 T __ZN7libfive10ObjectPoolIJNS_12IntersectionILj2EEEEE5claimERS3_
0000000000089340 T __ZN7libfive10ObjectPoolIJNS_12IntersectionILj2EEEEE5resetEjPNS_15ProgressHandlerE
0000000000089600 T __ZN7libfive10ObjectPoolIJNS_12IntersectionILj2EEEEED1Ev
0000000000088d00 T __ZN7libfive10ObjectPoolIJNS_12IntersectionILj2EEEEED2Ev
0000000000088ad0 T __ZN7libfive10ObjectPoolIJNS_12IntersectionILj2EEEEEaSEOS3_
000000000008d6b0 T __ZN7libfive10ObjectPoolIJNS_12IntersectionILj3EEEEE3getIJEEEPS2_DpT_
000000000008ccc0 T __ZN7libfive10ObjectPoolIJNS_12IntersectionILj3EEEEE3putEPS2_
000000000008cca0 T __ZN7libfive10ObjectPoolIJNS_12IntersectionILj3EEEEE4nextEv
000000000008c760 T __ZN7libfive10ObjectPoolIJNS_12IntersectionILj3EEEEE5claimERS3_
000000000008cb20 T __ZN7libfive10ObjectPoolIJNS_12IntersectionILj3EEEEE5resetEjPNS_15ProgressHandlerE
000000000008cde0 T __ZN7libfive10ObjectPoolIJNS_12IntersectionILj3EEEEED1Ev
000000000008c4e0 T __ZN7libfive10ObjectPoolIJNS_12IntersectionILj3EEEEED2Ev
000000000008c2b0 T __ZN7libfive10ObjectPoolIJNS_12IntersectionILj3EEEEEaSEOS3_
00000000000ed3f0 T __ZN7libfive10ObjectPoolIJNS_19SimplexLeafSubspaceILj2EEEEE3getIJEEEPS2_DpT_
00000000000ec9b0 T __ZN7libfive10ObjectPoolIJNS_19SimplexLeafSubspaceILj2EEEEE3putEPS2_
00000000000ec990 T __ZN7libfive10ObjectPoolIJNS_19SimplexLeafSubspaceILj2EEEEE4nextEv
00000000000ec450 T __ZN7libfive10ObjectPoolIJNS_19SimplexLeafSubspaceILj2EEEEE5claimERS3_
00000000000ec810 T __ZN7libfive10ObjectPoolIJNS_19SimplexLeafSubspaceILj2EEEEE5resetEjPNS_15ProgressHandlerE
00000000000ecad0 T __ZN7libfive10ObjectPoolIJNS_19SimplexLeafSubspaceILj2EEEEED1Ev
00000000000ec1d0 T __ZN7libfive10ObjectPoolIJNS_19SimplexLeafSubspaceILj2EEEEED2Ev
00000000000ebfa0 T __ZN7libfive10ObjectPoolIJNS_19SimplexLeafSubspaceILj2EEEEEaSEOS3_
00000000000f0d70 T __ZN7libfive10ObjectPoolIJNS_19SimplexLeafSubspaceILj3EEEEE3getIJEEEPS2_DpT_
00000000000f0330 T __ZN7libfive10ObjectPoolIJNS_19SimplexLeafSubspaceILj3EEEEE3putEPS2_
00000000000f0310 T __ZN7libfive10ObjectPoolIJNS_19SimplexLeafSubspaceILj3EEEEE4nextEv
00000000000efdd0 T __ZN7libfive10ObjectPoolIJNS_19SimplexLeafSubspaceILj3EEEEE5claimERS3_
00000000000f0190 T __ZN7libfive10ObjectPoolIJNS_19SimplexLeafSubspaceILj3EEEEE5resetEjPNS_15ProgressHandlerE
00000000000f0450 T __ZN7libfive10ObjectPoolIJNS_19SimplexLeafSubspaceILj3EEEEED1Ev
00000000000efb50 T __ZN7libfive10ObjectPoolIJNS_19SimplexLeafSubspaceILj3EEEEED2Ev
00000000000ef920 T __ZN7libfive10ObjectPoolIJNS_19SimplexLeafSubspaceILj3EEEEEaSEOS3_
0000000000089c80 T __ZN7libfive10ObjectPoolIJNS_6DCLeafILj2EEENS_12IntersectionILj2EEEEE3getIJEEEPS2_DpT_
0000000000088be0 T __ZN7libfive10ObjectPoolIJNS_6DCLeafILj2EEENS_12IntersectionILj2EEEEE3putEPS2_
0000000000088ac0 T __ZN7libfive10ObjectPoolIJNS_6DCLeafILj2EEENS_12IntersectionILj2EEEEE4nextEv
00000000000884c0 T __ZN7libfive10ObjectPoolIJNS_6DCLeafILj2EEENS_12IntersectionILj2EEEEE5claimERS5_
0000000000088930 T __ZN7libfive10ObjectPoolIJNS_6DCLeafILj2EEENS_12IntersectionILj2EEEEE5resetEjPNS_15ProgressHandlerE
0000000000088d60 T __ZN7libfive10ObjectPoolIJNS_6DCLeafILj2EEENS_12IntersectionILj2EEEEED1Ev
0000000000087f40 T __ZN7libfive10ObjectPoolIJNS_6DCLeafILj2EEENS_12IntersectionILj2EEEEED2Ev
00000000000879f0 T __ZN7libfive10ObjectPoolIJNS_6DCLeafILj2EEENS_12IntersectionILj2EEEEEaSEOS5_
000000000008d460 T __ZN7libfive10ObjectPoolIJNS_6DCLeafILj3EEENS_12IntersectionILj3EEEEE3getIJEEEPS2_DpT_
000000000008c3c0 T __ZN7libfive10ObjectPoolIJNS_6DCLeafILj3EEENS_12IntersectionILj3EEEEE3putEPS2_
000000000008c2a0 T __ZN7libfive10ObjectPoolIJNS_6DCLeafILj3EEENS_12IntersectionILj3EEEEE4nextEv
000000000008bca0 T __ZN7libfive10ObjectPoolIJNS_6DCLeafILj3EEENS_12IntersectionILj3EEEEE5claimERS5_
000000000008c110 T __ZN7libfive10ObjectPoolIJNS_6DCLeafILj3EEENS_12IntersectionILj3EEEEE5resetEjPNS_15ProgressHandlerE
000000000008c540 T __ZN7libfive10ObjectPoolIJNS_6DCLeafILj3EEENS_12IntersectionILj3EEEEED1Ev
000000000008b720 T __ZN7libfive10ObjectPoolIJNS_6DCLeafILj3EEENS_12IntersectionILj3EEEEED2Ev
000000000008b1d0 T __ZN7libfive10ObjectPoolIJNS_6DCLeafILj3EEENS_12IntersectionILj3EEEEEaSEOS5_
00000000000899b0 T __ZN7libfive10ObjectPoolIJNS_6DCTreeILj2EEENS_6DCLeafILj2EEENS_12IntersectionILj2EEEEE3getIJPS2_jNS_6RegionILj2EEEEEES9_DpT_
0000000000087bf0 T __ZN7libfive10ObjectPoolIJNS_6DCTreeILj2EEENS_6DCLeafILj2EEENS_12IntersectionILj2EEEEE3putEPS2_
00000000000879e0 T __ZN7libfive10ObjectPoolIJNS_6DCTreeILj2EEENS_6DCLeafILj2EEENS_12IntersectionILj2EEEEE4nextEv
0000000000088000 T __ZN7libfive10ObjectPoolIJNS_6DCTreeILj2EEENS_6DCLeafILj2EEENS_12IntersectionILj2EEEEE5claimERS7_
0000000000087da0 T __ZN7libfive10ObjectPoolIJNS_6DCTreeILj2EEENS_6DCLeafILj2EEENS_12IntersectionILj2EEEEE5resetEjPNS_15ProgressHandlerE
0000000000087ff0 T __ZN7libfive10ObjectPoolIJNS_6DCTreeILj2EEENS_6DCLeafILj2EEENS_12IntersectionILj2EEEEED1Ev
0000000000087d20 T __ZN7libfive10ObjectPoolIJNS_6DCTreeILj2EEENS_6DCLeafILj2EEENS_12IntersectionILj2EEEEED2Ev
0000000000087880 T __ZN7libfive10ObjectPoolIJNS_6DCTreeILj2EEENS_6DCLeafILj2EEENS_12IntersectionILj2EEEEEaSEOS7_
000000000008d190 T __ZN7libfive10ObjectPoolIJNS_6DCTreeILj3EEENS_6DCLeafILj3EEENS_12IntersectionILj3EEEEE3getIJPS2_jNS_6RegionILj3EEEEEES9_DpT_
000000000008b3d0 T __ZN7libfive10ObjectPoolIJNS_6DCTreeILj3EEENS_6DCLeafILj3EEENS_12IntersectionILj3EEEEE3putEPS2_
000000000008b1c0 T __ZN7libfive10ObjectPoolIJNS_6DCTreeILj3EEENS_6DCLeafILj3EEENS_12IntersectionILj3EEEEE4nextEv
000000000008b7e0 T __ZN7libfive10ObjectPoolIJNS_6DCTreeILj3EEENS_6DCLeafILj3EEENS_12IntersectionILj3EEEEE5claimERS7_
000000000008b580 T __ZN7libfive10ObjectPoolIJNS_6DCTreeILj3EEENS_6DCLeafILj3EEENS_12IntersectionILj3EEEEE5resetEjPNS_15ProgressHandlerE
000000000008b7d0 T __ZN7libfive10ObjectPoolIJNS_6DCTreeILj3EEENS_6DCLeafILj3EEENS_12IntersectionILj3EEEEED1Ev
000000000008b500 T __ZN7libfive10ObjectPoolIJNS_6DCTreeILj3EEENS_6DCLeafILj3EEENS_12IntersectionILj3EEEEED2Ev
000000000008b060 T __ZN7libfive10ObjectPoolIJNS_6DCTreeILj3EEENS_6DCLeafILj3EEENS_12IntersectionILj3EEEEEaSEOS7_
00000000000f95b0 T __ZN7libfive10ObjectPoolIJNS_7VolTreeEEE3getIJPS1_jNS_6RegionILj3EEEEEES4_DpT_
00000000000f8c80 T __ZN7libfive10ObjectPoolIJNS_7VolTreeEEE3putEPS1_
00000000000f8c60 T __ZN7libfive10ObjectPoolIJNS_7VolTreeEEE4nextEv
00000000000f8fe0 T __ZN7libfive10ObjectPoolIJNS_7VolTreeEEE5claimERS2_
00000000000f8e00 T __ZN7libfive10ObjectPoolIJNS_7VolTreeEEE5resetEjPNS_15ProgressHandlerE
00000000000f8f80 T __ZN7libfive10ObjectPoolIJNS_7VolTreeEEED1Ev
00000000000f8da0 T __ZN7libfive10ObjectPoolIJNS_7VolTreeEEED2Ev
00000000000f8b60 T __ZN7libfive10ObjectPoolIJNS_7VolTreeEEEaSEOS2_
0000000000134b2d S __ZN7libfive10Serializer11END_OF_ITEME
00000000001034f0 T __ZN7libfive10Serializer13serializeTreeERKNS_4TreeE
0000000000103120 T __ZN7libfive10Serializer14serializeShapeERKNS_7Archive5ShapeE
0000000000103a10 T __ZN7libfive10Serializer15serializeStringERKNSt3__112basic_stringIcNS1_11char_traitsIcEENS1_9allocatorIcEEEE
00000000001030e0 T __ZN7libfive10Serializer3runERNS_7ArchiveE
0000000000092360 T __ZN7libfive10WorkerPoolINS_10HybridTreeILj2EEENS_15HybridNeighborsILj2EEELj2EE3runEPNS_9EvaluatorERN5boost8lockfree5stackINS5_4TaskEJNS9_11fixed_sizedILb1EEEEEERNS_4RootIS2_EERNSt3__15mutexERKNS_12BRepSettingsERNSJ_6atomicIbEE
0000000000091c40 T __ZN7libfive10WorkerPoolINS_10HybridTreeILj2EEENS_15HybridNeighborsILj2EEELj2EE5buildEPNS_9EvaluatorERKNS_6RegionILj2EEERKNS_12BRepSettingsE
00000000000917e0 T __ZN7libfive10WorkerPoolINS_10HybridTreeILj2EEENS_15HybridNeighborsILj2EEELj2EE5buildERKNS_4TreeERKNS_6RegionILj2EEERKNS_12BRepSettingsE
00000000000943a0 T __ZN7libfive10WorkerPoolINS_10HybridTreeILj3EEENS_15HybridNeighborsILj3EEELj3EE3runEPNS_9EvaluatorERN5boost8lockfree5stackINS5_4TaskEJNS9_11fixed_sizedILb1EEEEEERNS_4RootIS2_EERNSt3__15mutexERKNS_12BRepSettingsERNSJ_6atomicIbEE
0000000000093c50 T __ZN7libfive10WorkerPoolINS_10HybridTreeILj3EEENS_15HybridNeighborsILj3EEELj3EE5buildEPNS_9EvaluatorERKNS_6RegionILj3EEERKNS_12BRepSettingsE
00000000000937f0 T __ZN7libfive10WorkerPoolINS_10HybridTreeILj3EEENS_15HybridNeighborsILj3EEELj3EE5buildERKNS_4TreeERKNS_6RegionILj3EEERKNS_12BRepSettingsE
00000000000d4fe0 T __ZN7libfive10WorkerPoolINS_11SimplexTreeILj2EEENS_16SimplexNeighborsILj2EEELj2EE3runEPNS_9EvaluatorERN5boost8lockfree5stackINS5_4TaskEJNS9_11fixed_sizedILb1EEEEEERNS_4RootIS2_EERNSt3__15mutexERKNS_12BRepSettingsERNSJ_6atomicIbEE
00000000000d4880 T __ZN7libfive10WorkerPoolINS_11SimplexTreeILj2EEENS_16SimplexNeighborsILj2EEELj2EE5buildEPNS_9EvaluatorERKNS_6RegionILj2EEERKNS_12BRepSettingsE
00000000000d4420 T __ZN7libfive10WorkerPoolINS_11SimplexTreeILj2EEENS_16SimplexNeighborsILj2EEELj2EE5buildERKNS_4TreeERKNS_6RegionILj2EEERKNS_12BRepSettingsE
00000000000d7070 T __ZN7libfive10WorkerPoolINS_11SimplexTreeILj3EEENS_16SimplexNeighborsILj3EEELj3EE3runEPNS_9EvaluatorERN5boost8lockfree5stackINS5_4TaskEJNS9_11fixed_sizedILb1EEEEEERNS_4RootIS2_EERNSt3__15mutexERKNS_12BRepSettingsERNSJ_6atomicIbEE
00000000000d68e0 T __ZN7libfive10WorkerPoolINS_11SimplexTreeILj3EEENS_16SimplexNeighborsILj3EEELj3EE5buildEPNS_9EvaluatorERKNS_6RegionILj3EEERKNS_12BRepSettingsE
00000000000d6480 T __ZN7libfive10WorkerPoolINS_11SimplexTreeILj3EEENS_16SimplexNeighborsILj3EEELj3EE5buildERKNS_4TreeERKNS_6RegionILj3EEERKNS_12BRepSettingsE
0000000000063470 T __ZN7libfive10WorkerPoolINS_6DCTreeILj2EEENS_11DCNeighborsILj2EEELj2EE3runEPNS_9EvaluatorERN5boost8lockfree5stackINS5_4TaskEJNS9_11fixed_sizedILb1EEEEEERNS_4RootIS2_EERNSt3__15mutexERKNS_12BRepSettingsERNSJ_6atomicIbEE
0000000000062d60 T __ZN7libfive10WorkerPoolINS_6DCTreeILj2EEENS_11DCNeighborsILj2EEELj2EE5buildEPNS_9EvaluatorERKNS_6RegionILj2EEERKNS_12BRepSettingsE
0000000000062900 T __ZN7libfive10WorkerPoolINS_6DCTreeILj2EEENS_11DCNeighborsILj2EEELj2EE5buildERKNS_4TreeERKNS_6RegionILj2EEERKNS_12BRepSettingsE
00000000000657e0 T __ZN7libfive10WorkerPoolINS_6DCTreeILj3EEENS_11DCNeighborsILj3EEELj3EE3runEPNS_9EvaluatorERN5boost8lockfree5stackINS5_4TaskEJNS9_11fixed_sizedILb1EEEEEERNS_4RootIS2_EERNSt3__15mutexERKNS_12BRepSettingsERNSJ_6atomicIbEE
0000000000065050 T __ZN7libfive10WorkerPoolINS_6DCTreeILj3EEENS_11DCNeighborsILj3EEELj3EE5buildEPNS_9EvaluatorERKNS_6RegionILj3EEERKNS_12BRepSettingsE
0000000000064bf0 T __ZN7libfive10WorkerPoolINS_6DCTreeILj3EEENS_11DCNeighborsILj3EEELj3EE5buildERKNS_4TreeERKNS_6RegionILj3EEERKNS_12BRepSettingsE
00000000000fb8b0 T __ZN7libfive10WorkerPoolINS_7VolTreeENS_12VolNeighborsELj3EE3runEPNS_9EvaluatorERN5boost8lockfree5stackINS3_4TaskEJNS7_11fixed_sizedILb1EEEEEERNS_4RootIS1_EERNSt3__15mutexERKNS_12BRepSettingsERNSH_6atomicIbEE
00000000000fb140 T __ZN7libfive10WorkerPoolINS_7VolTreeENS_12VolNeighborsELj3EE5buildEPNS_9EvaluatorERKNS_6RegionILj3EEERKNS_12BRepSettingsE
00000000000face0 T __ZN7libfive10WorkerPoolINS_7VolTreeENS_12VolNeighborsELj3EE5buildERKNS_4TreeERKNS_6RegionILj3EEERKNS_12BRepSettingsE
000000000005b1d0 T __ZN7libfive11DCContourer4loadILNS_4Axis4AxisE1EEEvRKNSt3__15arrayIPKNS_6DCTreeILj2EEELm2EEE
000000000005bc10 T __ZN7libfive11DCContourer4loadILNS_4Axis4AxisE2EEEvRKNSt3__15arrayIPKNS_6DCTreeILj2EEELm2EEE
000000000005c650 T __ZN7libfive11DCContourer4loadILNS_4Axis4AxisE4EEEvRKNSt3__15arrayIPKNS_6DCTreeILj2EEELm2EEE
0000000000062130 T __ZN7libfive11DCNeighborsILj2EEC1Ev
0000000000062150 T __ZN7libfive11DCNeighborsILj2EEC2Ev
00000000000624d0 T __ZN7libfive11DCNeighborsILj3EEC1Ev
0000000000062510 T __ZN7libfive11DCNeighborsILj3EEC2Ev
00000000000db390 T __ZN7libfive11SimplexLeafILj2EE5resetEv
00000000000dab10 T __ZN7libfive11SimplexLeafILj2EE9releaseToERNS_10ObjectPoolIJS1_NS_19SimplexLeafSubspaceILj2EEEEEE
00000000000db430 T __ZN7libfive11SimplexLeafILj2EEC1Ev
00000000000db300 T __ZN7libfive11SimplexLeafILj2EEC2Ev
00000000000db4d0 T __ZN7libfive11SimplexLeafILj2EEdaEPv
00000000000db4e0 T __ZN7libfive11SimplexLeafILj2EEdlEPv
00000000000db4c0 T __ZN7libfive11SimplexLeafILj2EEnaEm
00000000000e2af0 T __ZN7libfive11SimplexLeafILj3EE5resetEv
00000000000e2070 T __ZN7libfive11SimplexLeafILj3EE9releaseToERNS_10ObjectPoolIJS1_NS_19SimplexLeafSubspaceILj3EEEEEE
00000000000e2c20 T __ZN7libfive11SimplexLeafILj3EEC1Ev
00000000000e29c0 T __ZN7libfive11SimplexLeafILj3EEC2Ev
00000000000e2d60 T __ZN7libfive11SimplexLeafILj3EEdaEPv
00000000000e2d70 T __ZN7libfive11SimplexLeafILj3EEdlEPv
00000000000e2d50 T __ZN7libfive11SimplexLeafILj3EEnaEm
00000000000db2f0 T __ZN7libfive11SimplexTreeILj2EE11isSingletonEPKS1_
00000000000d8b00 T __ZN7libfive11SimplexTreeILj2EE12evalIntervalEPNS_9EvaluatorERKNSt3__110shared_ptrINS_4TapeEEERNS_10ObjectPoolIJS1_NS_11SimplexLeafILj2EEENS_19SimplexLeafSubspaceILj2EEEEEE
00000000000db2c0 T __ZN7libfive11SimplexTreeILj2EE13hasSingletonsEv
00000000000db2d0 T __ZN7libfive11SimplexTreeILj2EE14singletonEmptyEv
00000000000d9cb0 T __ZN7libfive11SimplexTreeILj2EE15collectChildrenEPNS_9EvaluatorERKNSt3__110shared_ptrINS_4TapeEEERNS_10ObjectPoolIJS1_NS_11SimplexLeafILj2EEENS_19SimplexLeafSubspaceILj2EEEEEEd
00000000000da7b0 T __ZN7libfive11SimplexTreeILj2EE15saveVertexSignsEPNS_9EvaluatorERKNSt3__110shared_ptrINS_4TapeEEERKNS4_5arrayIbLm9EEE
00000000000db2e0 T __ZN7libfive11SimplexTreeILj2EE15singletonFilledEv
00000000000d9c00 T __ZN7libfive11SimplexTreeILj2EE16checkVertexSignsEv
00000000000d8ca0 T __ZN7libfive11SimplexTreeILj2EE16findLeafVerticesEPNS_9EvaluatorERKNSt3__110shared_ptrINS_4TapeEEERNS_10ObjectPoolIJS1_NS_11SimplexLeafILj2EEENS_19SimplexLeafSubspaceILj2EEEEEERKNS_16SimplexNeighborsILj2EEE
00000000000d8a90 T __ZN7libfive11SimplexTreeILj2EE5emptyEv
00000000000d9aa0 T __ZN7libfive11SimplexTreeILj2EE8evalLeafEPNS_9EvaluatorERKNSt3__110shared_ptrINS_4TapeEEERNS_10ObjectPoolIJS1_NS_11SimplexLeafILj2EEENS_19SimplexLeafSubspaceILj2EEEEEERKNS_16SimplexNeighborsILj2EEE
00000000000db140 T __ZN7libfive11SimplexTreeILj2EE9releaseToERNS_10ObjectPoolIJS1_NS_11SimplexLeafILj2EEENS_19SimplexLeafSubspaceILj2EEEEEE
00000000000d8a10 T __ZN7libfive11SimplexTreeILj2EEC1EPS1_jRKNS_6RegionILj2EEE
00000000000d8940 T __ZN7libfive11SimplexTreeILj2EEC1Ev
00000000000d8990 T __ZN7libfive11SimplexTreeILj2EEC2EPS1_jRKNS_6RegionILj2EEE
00000000000d88f0 T __ZN7libfive11SimplexTreeILj2EEC2Ev
00000000000db2b0 T __ZN7libfive11SimplexTreeILj2EEdaEPv
00000000000db290 T __ZN7libfive11SimplexTreeILj2EEnaEm
00000000000e29b0 T __ZN7libfive11SimplexTreeILj3EE11isSingletonEPKS1_
00000000000df4d0 T __ZN7libfive11SimplexTreeILj3EE12evalIntervalEPNS_9EvaluatorERKNSt3__110shared_ptrINS_4TapeEEERNS_10ObjectPoolIJS1_NS_11SimplexLeafILj3EEENS_19SimplexLeafSubspaceILj3EEEEEE
00000000000e2980 T __ZN7libfive11SimplexTreeILj3EE13hasSingletonsEv
00000000000e2990 T __ZN7libfive11SimplexTreeILj3EE14singletonEmptyEv
00000000000e08a0 T __ZN7libfive11SimplexTreeILj3EE15collectChildrenEPNS_9EvaluatorERKNSt3__110shared_ptrINS_4TapeEEERNS_10ObjectPoolIJS1_NS_11SimplexLeafILj3EEENS_19SimplexLeafSubspaceILj3EEEEEEd
00000000000e1ba0 T __ZN7libfive11SimplexTreeILj3EE15saveVertexSignsEPNS_9EvaluatorERKNSt3__110shared_ptrINS_4TapeEEERKNS4_5arrayIbLm27EEE
00000000000e29a0 T __ZN7libfive11SimplexTreeILj3EE15singletonFilledEv
00000000000e0690 T __ZN7libfive11SimplexTreeILj3EE16checkVertexSignsEv
00000000000df690 T __ZN7libfive11SimplexTreeILj3EE16findLeafVerticesEPNS_9EvaluatorERKNSt3__110shared_ptrINS_4TapeEEERNS_10ObjectPoolIJS1_NS_11SimplexLeafILj3EEENS_19SimplexLeafSubspaceILj3EEEEEERKNS_16SimplexNeighborsILj3EEE
00000000000df430 T __ZN7libfive11SimplexTreeILj3EE5emptyEv
00000000000e05b0 T __ZN7libfive11SimplexTreeILj3EE8evalLeafEPNS_9EvaluatorERKNSt3__110shared_ptrINS_4TapeEEERNS_10ObjectPoolIJS1_NS_11SimplexLeafILj3EEENS_19SimplexLeafSubspaceILj3EEEEEERKNS_16SimplexNeighborsILj3EEE
00000000000e2900 T __ZN7libfive11SimplexTreeILj3EE9releaseToERNS_10ObjectPoolIJS1_NS_11SimplexLeafILj3EEENS_19SimplexLeafSubspaceILj3EEEEEE
00000000000df370 T __ZN7libfive11SimplexTreeILj3EEC1EPS1_jRKNS_6RegionILj3EEE
00000000000df240 T __ZN7libfive11SimplexTreeILj3EEC1Ev
00000000000df2b0 T __ZN7libfive11SimplexTreeILj3EEC2EPS1_jRKNS_6RegionILj3EEE
00000000000df1d0 T __ZN7libfive11SimplexTreeILj3EEC2Ev
00000000000e2970 T __ZN7libfive11SimplexTreeILj3EEdaEPv
00000000000e2950 T __ZN7libfive11SimplexTreeILj3EEnaEm
0000000000101b20 T __ZN7libfive12Deserializer16deserializeShapeEc
0000000000102f30 T __ZN7libfive12Deserializer17deserializeStringEv
0000000000101980 T __ZN7libfive12Deserializer3runEv
00000000000cbdc0 T __ZN7libfive12HybridMesher10searchEdgeEN5Eigen6MatrixIdLi3ELi1ELi0ELi3ELi1EEES3_RKNSt3__110shared_ptrINS_4TapeEEE
00000000000c9ad0 T __ZN7libfive12HybridMesher4loadILNS_4Axis4AxisE1EEEvRKNSt3__15arrayIPKNS_10HybridTreeILj3EEELm4EEE
00000000000cc0f0 T __ZN7libfive12HybridMesher4loadILNS_4Axis4AxisE2EEEvRKNSt3__15arrayIPKNS_10HybridTreeILj3EEELm4EEE
00000000000ce3e0 T __ZN7libfive12HybridMesher4loadILNS_4Axis4AxisE4EEEvRKNSt3__15arrayIPKNS_10HybridTreeILj3EEELm4EEE
00000000000d0730 T __ZN7libfive12HybridMesherC1ERNS_13PerThreadBRepILj3EEENS_4TreeE
00000000000d07b0 T __ZN7libfive12HybridMesherC1ERNS_13PerThreadBRepILj3EEEPNS_9EvaluatorE
00000000000d06d0 T __ZN7libfive12HybridMesherC2ERNS_13PerThreadBRepILj3EEENS_4TreeE
00000000000d0790 T __ZN7libfive12HybridMesherC2ERNS_13PerThreadBRepILj3EEEPNS_9EvaluatorE
00000000000d08a0 T __ZN7libfive12HybridMesherD1Ev
00000000000d07d0 T __ZN7libfive12HybridMesherD2Ev
000000000011c590 T __ZN7libfive12OracleClause11deserializeERKNSt3__112basic_stringIcNS1_11char_traitsIcEENS1_9allocatorIcEEEERNS_12DeserializerE
000000000011c7a0 T __ZN7libfive12OracleClause9serializeERKNSt3__112basic_stringIcNS1_11char_traitsIcEENS1_9allocatorIcEEEEPKS0_RNS_10SerializerE
00000000000f8ae0 T __ZN7libfive12VolNeighborsC1Ev
00000000000f8b20 T __ZN7libfive12VolNeighborsC2Ev
0000000000005050 T __ZN7libfive13BaseEvaluatorC1ENSt3__110shared_ptrINS_4DeckEEERKNS1_3mapIPKvfNS1_4lessIS7_EENS1_9allocatorINS1_4pairIKS7_fEEEEEE
0000000000004e20 T __ZN7libfive13BaseEvaluatorC2ENSt3__110shared_ptrINS_4DeckEEERKNS1_3mapIPKvfNS1_4lessIS7_EENS1_9allocatorINS1_4pairIKS7_fEEEEEE
0000000000057a30 T __ZN7libfive13MarchingTableILj2EE1eENS_11CornerIndexE
0000000000057ab0 T __ZN7libfive13MarchingTableILj2EE1pENS_11CornerIndexE
0000000000057950 T __ZN7libfive13MarchingTableILj2EE1vENS_11CornerIndexE
00000000000579c0 T __ZN7libfive13MarchingTableILj2EE8instanceEv
0000000000057b30 T __ZN7libfive13MarchingTableILj2EEC1Ev
0000000000057b40 T __ZN7libfive13MarchingTableILj2EEC2Ev
0000000000058670 T __ZN7libfive13MarchingTableILj3EE1eENS_11CornerIndexE
00000000000586f0 T __ZN7libfive13MarchingTableILj3EE1pENS_11CornerIndexE
0000000000058590 T __ZN7libfive13MarchingTableILj3EE1vENS_11CornerIndexE
0000000000058600 T __ZN7libfive13MarchingTableILj3EE8instanceEv
0000000000058770 T __ZN7libfive13MarchingTableILj3EEC1Ev
0000000000058780 T __ZN7libfive13MarchingTableILj3EEC2Ev
00000000000f41f0 T __ZN7libfive13SimplexMesher10searchEdgeEN5Eigen6MatrixIdLi3ELi1ELi0ELi3ELi1EEES3_RKNSt3__110shared_ptrINS_4TapeEEE
00000000000f20a0 T __ZN7libfive13SimplexMesher4loadILNS_4Axis4AxisE1EEEvRKNSt3__15arrayIPKNS_11SimplexTreeILj3EEELm4EEE
00000000000f4520 T __ZN7libfive13SimplexMesher4loadILNS_4Axis4AxisE2EEEvRKNSt3__15arrayIPKNS_11SimplexTreeILj3EEELm4EEE
00000000000f6680 T __ZN7libfive13SimplexMesher4loadILNS_4Axis4AxisE4EEEvRKNSt3__15arrayIPKNS_11SimplexTreeILj3EEELm4EEE
00000000000f8830 T __ZN7libfive13SimplexMesherC1ERNS_13PerThreadBRepILj3EEENS_4TreeE
00000000000f88b0 T __ZN7libfive13SimplexMesherC1ERNS_13PerThreadBRepILj3EEEPNS_9EvaluatorE
00000000000f87d0 T __ZN7libfive13SimplexMesherC2ERNS_13PerThreadBRepILj3EEENS_4TreeE
00000000000f8890 T __ZN7libfive13SimplexMesherC2ERNS_13PerThreadBRepILj3EEEPNS_9EvaluatorE
00000000000f89a0 T __ZN7libfive13SimplexMesherD1Ev
00000000000f88d0 T __ZN7libfive13SimplexMesherD2Ev
0000000000018220 T __ZN7libfive14ArrayEvaluator12getAmbiguousEm
0000000000018250 T __ZN7libfive14ArrayEvaluator12getAmbiguousEmRKNS_4TapeE
0000000000017f40 T __ZN7libfive14ArrayEvaluator12valueAndPushERKN5Eigen6MatrixIfLi3ELi1ELi0ELi3ELi1EEE
0000000000017f70 T __ZN7libfive14ArrayEvaluator12valueAndPushERKN5Eigen6MatrixIfLi3ELi1ELi0ELi3ELi1EEERKNSt3__110shared_ptrINS_4TapeEEE
000000000012fa80 S __ZN7libfive14ArrayEvaluator1NE
0000000000011870 T __ZN7libfive14ArrayEvaluator5valueERKN5Eigen6MatrixIfLi3ELi1ELi0ELi3ELi1EEE
0000000000011890 T __ZN7libfive14ArrayEvaluator5valueERKN5Eigen6MatrixIfLi3ELi1ELi0ELi3ELi1EEERKNS_4TapeE
0000000000018070 T __ZN7libfive14ArrayEvaluator6setVarEPKvf
0000000000011a90 T __ZN7libfive14ArrayEvaluator6valuesEm
00000000000119c0 T __ZN7libfive14ArrayEvaluator6valuesEmRKNS_4TapeE
0000000000011b70 T __ZN7libfive14ArrayEvaluator8setCountEm
0000000000010c10 T __ZN7libfive14ArrayEvaluatorC1ENSt3__110shared_ptrINS_4DeckEEE
0000000000011330 T __ZN7libfive14ArrayEvaluatorC1ENSt3__110shared_ptrINS_4DeckEEERKNS1_3mapIPKvfNS1_4lessIS7_EENS1_9allocatorINS1_4pairIKS7_fEEEEEE
0000000000010b40 T __ZN7libfive14ArrayEvaluatorC1ERKNS_4TreeE
0000000000011250 T __ZN7libfive14ArrayEvaluatorC1ERKNS_4TreeERKNSt3__13mapIPKvfNS4_4lessIS7_EENS4_9allocatorINS4_4pairIKS7_fEEEEEE
0000000000010a90 T __ZN7libfive14ArrayEvaluatorC2ENSt3__110shared_ptrINS_4DeckEEE
0000000000010da0 T __ZN7libfive14ArrayEvaluatorC2ENSt3__110shared_ptrINS_4DeckEEERKNS1_3mapIPKvfNS1_4lessIS7_EENS1_9allocatorINS1_4pairIKS7_fEEEEEE
00000000000109b0 T __ZN7libfive14ArrayEvaluatorC2ERKNS_4TreeE
0000000000010cc0 T __ZN7libfive14ArrayEvaluatorC2ERKNS_4TreeERKNSt3__13mapIPKvfNS4_4lessIS7_EENS4_9allocatorINS4_4pairIKS7_fEEEEEE
0000000000011b90 T __ZN7libfive14ArrayEvaluatorclENS_6Opcode6OpcodeEjjj
0000000000047de0 T __ZN7libfive14ManifoldTablesILj2EE8manifoldEj
0000000000047f40 T __ZN7libfive14ManifoldTablesILj2EEC1Ev
0000000000048d10 T __ZN7libfive14ManifoldTablesILj2EEC2Ev
0000000000049040 T __ZN7libfive14ManifoldTablesILj3EE8manifoldEj
00000000000495b0 T __ZN7libfive14ManifoldTablesILj3EEC1Ev
0000000000049630 T __ZN7libfive14ManifoldTablesILj3EEC2Ev
0000000000053610 T __ZN7libfive14NeighborTablesILj2EE11cornerTableENS_11CornerIndexE
0000000000053210 T __ZN7libfive14NeighborTablesILj2EE11getNeighborENS_13NeighborIndexES2_
0000000000053710 T __ZN7libfive14NeighborTablesILj2EE11qefSumTableENS_13NeighborIndexE
0000000000053690 T __ZN7libfive14NeighborTablesILj2EE13neighborTableENS_13NeighborIndexE
00000000000534e0 T __ZN7libfive14NeighborTablesILj2EE13whichNeighborENS_11CornerIndexENS_13NeighborIndexE
0000000000053530 T __ZN7libfive14NeighborTablesILj2EE14pushIndexTableENS_11CornerIndexE
0000000000053400 T __ZN7libfive14NeighborTablesILj2EE15withinTreeIndexENS_11CornerIndexENS_13NeighborIndexE
0000000000053480 T __ZN7libfive14NeighborTablesILj2EE19neighborTargetIndexENS_11CornerIndexENS_13NeighborIndexE
00000000000535a0 T __ZN7libfive14NeighborTablesILj2EE8instanceEv
00000000000530b0 T __ZN7libfive14NeighborTablesILj2EE9getCornerENS_11CornerIndexENS_13NeighborIndexE
00000000000532d0 T __ZN7libfive14NeighborTablesILj2EE9pushIndexENS_11CornerIndexENS_13NeighborIndexE
0000000000053790 T __ZN7libfive14NeighborTablesILj2EEC1Ev
00000000000537a0 T __ZN7libfive14NeighborTablesILj2EEC2Ev
0000000000055380 T __ZN7libfive14NeighborTablesILj3EE11cornerTableENS_11CornerIndexE
0000000000054fd0 T __ZN7libfive14NeighborTablesILj3EE11getNeighborENS_13NeighborIndexES2_
0000000000055480 T __ZN7libfive14NeighborTablesILj3EE11qefSumTableENS_13NeighborIndexE
0000000000055400 T __ZN7libfive14NeighborTablesILj3EE13neighborTableENS_13NeighborIndexE
0000000000055250 T __ZN7libfive14NeighborTablesILj3EE13whichNeighborENS_11CornerIndexENS_13NeighborIndexE
00000000000552a0 T __ZN7libfive14NeighborTablesILj3EE14pushIndexTableENS_11CornerIndexE
0000000000055170 T __ZN7libfive14NeighborTablesILj3EE15withinTreeIndexENS_11CornerIndexENS_13NeighborIndexE
00000000000551f0 T __ZN7libfive14NeighborTablesILj3EE19neighborTargetIndexENS_11CornerIndexENS_13NeighborIndexE
0000000000055310 T __ZN7libfive14NeighborTablesILj3EE8instanceEv
0000000000054f50 T __ZN7libfive14NeighborTablesILj3EE9getCornerENS_11CornerIndexENS_13NeighborIndexE
0000000000055040 T __ZN7libfive14NeighborTablesILj3EE9pushIndexENS_11CornerIndexENS_13NeighborIndexE
0000000000055500 T __ZN7libfive14NeighborTablesILj3EEC1Ev
0000000000055510 T __ZN7libfive14NeighborTablesILj3EEC2Ev
0000000000095e20 T __ZN7libfive15HybridNeighborsILj2EEC1Ev
0000000000095e40 T __ZN7libfive15HybridNeighborsILj2EEC2Ev
0000000000095f90 T __ZN7libfive15HybridNeighborsILj3EEC1Ev
0000000000095fd0 T __ZN7libfive15HybridNeighborsILj3EEC2Ev
0000000000056f10 T __ZN7libfive15ProgressHandler3runEv
0000000000057390 T __ZN7libfive15ProgressHandler4tickEy
00000000000570a0 T __ZN7libfive15ProgressHandler5startERKNSt3__16vectorIjNS1_9allocatorIjEEEE
0000000000056ea0 T __ZN7libfive15ProgressHandler6finishEv
0000000000057380 T __ZN7libfive15ProgressHandler8progressEd
0000000000057140 T __ZN7libfive15ProgressHandler9nextPhaseEy
0000000000056ce0 T __ZN7libfive15ProgressHandlerC1Ev
0000000000056c20 T __ZN7libfive15ProgressHandlerC2Ev
0000000000056ef0 T __ZN7libfive15ProgressHandlerD0Ev
0000000000056ee0 T __ZN7libfive15ProgressHandlerD1Ev
0000000000056de0 T __ZN7libfive15ProgressHandlerD2Ev
000000000002def0 T __ZN7libfive16FeatureEvaluator8featuresERKN5Eigen6MatrixIfLi3ELi1ELi0ELi3ELi1EEE
000000000002df20 T __ZN7libfive16FeatureEvaluator8featuresERKN5Eigen6MatrixIfLi3ELi1ELi0ELi3ELi1EEERKNSt3__110shared_ptrINS_4TapeEEE
000000000002bae0 T __ZN7libfive16FeatureEvaluator8isInsideERKN5Eigen6MatrixIfLi3ELi1ELi0ELi3ELi1EEE
000000000002bb00 T __ZN7libfive16FeatureEvaluator8isInsideERKN5Eigen6MatrixIfLi3ELi1ELi0ELi3ELi1EEERKNSt3__110shared_ptrINS_4TapeEEE
000000000002dd60 T __ZN7libfive16FeatureEvaluator9features_ERKN5Eigen6MatrixIfLi3ELi1ELi0ELi3ELi1EEE
000000000002dd80 T __ZN7libfive16FeatureEvaluator9features_ERKN5Eigen6MatrixIfLi3ELi1ELi0ELi3ELi1EEERKNSt3__110shared_ptrINS_4TapeEEE
0000000000029c50 T __ZN7libfive16FeatureEvaluatorC1ENSt3__110shared_ptrINS_4DeckEEE
000000000002ab00 T __ZN7libfive16FeatureEvaluatorC1ENSt3__110shared_ptrINS_4DeckEEERKNS1_3mapIPKvfNS1_4lessIS7_EENS1_9allocatorINS1_4pairIKS7_fEEEEEE
0000000000029b80 T __ZN7libfive16FeatureEvaluatorC1ERKNS_4TreeE
0000000000029ad0 T __ZN7libfive16FeatureEvaluatorC2ENSt3__110shared_ptrINS_4DeckEEE
0000000000029d00 T __ZN7libfive16FeatureEvaluatorC2ENSt3__110shared_ptrINS_4DeckEEERKNS1_3mapIPKvfNS1_4lessIS7_EENS1_9allocatorINS1_4pairIKS7_fEEEEEE
00000000000299f0 T __ZN7libfive16FeatureEvaluatorC2ERKNS_4TreeE
000000000002bf90 T __ZN7libfive16FeatureEvaluatorclENS_6Opcode6OpcodeEjjj
00000000000d3ce0 T __ZN7libfive16SimplexNeighborsILj2EEC1Ev
00000000000d3d00 T __ZN7libfive16SimplexNeighborsILj2EEC2Ev
00000000000d4050 T __ZN7libfive16SimplexNeighborsILj3EEC1Ev
00000000000d4090 T __ZN7libfive16SimplexNeighborsILj3EEC2Ev
000000000008e870 T __ZN7libfive17HybridDebugMesher4loadILNS_4Axis4AxisE1EEEvRKNSt3__15arrayIPKNS_10HybridTreeILj3EEELm4EEE
000000000008f830 T __ZN7libfive17HybridDebugMesher4loadILNS_4Axis4AxisE2EEEvRKNSt3__15arrayIPKNS_10HybridTreeILj3EEELm4EEE
0000000000090700 T __ZN7libfive17HybridDebugMesher4loadILNS_4Axis4AxisE4EEEvRKNSt3__15arrayIPKNS_10HybridTreeILj3EEELm4EEE
0000000000091620 T __ZN7libfive17HybridDebugMesherC1ERNS_13PerThreadBRepILj3EEENS_4TreeE
00000000000916a0 T __ZN7libfive17HybridDebugMesherC1ERNS_13PerThreadBRepILj3EEEPNS_9EvaluatorE
00000000000915c0 T __ZN7libfive17HybridDebugMesherC2ERNS_13PerThreadBRepILj3EEENS_4TreeE
0000000000091680 T __ZN7libfive17HybridDebugMesherC2ERNS_13PerThreadBRepILj3EEEPNS_9EvaluatorE
0000000000091790 T __ZN7libfive17HybridDebugMesherD1Ev
00000000000916c0 T __ZN7libfive17HybridDebugMesherD2Ev
000000000000a7f0 T __ZN7libfive17IntervalEvaluator15intervalAndPushERKN5Eigen6MatrixIfLi3ELi1ELi0ELi3ELi1EEES5_
000000000000a870 T __ZN7libfive17IntervalEvaluator15intervalAndPushERKN5Eigen6MatrixIfLi3ELi1ELi0ELi3ELi1EEES5_RKNSt3__110shared_ptrINS_4TapeEEE
0000000000009e10 T __ZN7libfive17IntervalEvaluator4evalERKN5Eigen6MatrixIfLi3ELi1ELi0ELi3ELi1EEES5_
0000000000009e40 T __ZN7libfive17IntervalEvaluator4evalERKN5Eigen6MatrixIfLi3ELi1ELi0ELi3ELi1EEES5_RKNSt3__110shared_ptrINS_4TapeEEE
000000000000a8e0 T __ZN7libfive17IntervalEvaluator4pushERKNSt3__110shared_ptrINS_4TapeEEE
000000000000aa20 T __ZN7libfive17IntervalEvaluator4pushEv
0000000000009da0 T __ZN7libfive17IntervalEvaluator5storeEfm
000000000000aa50 T __ZN7libfive17IntervalEvaluator6setVarEPKvf
0000000000009590 T __ZN7libfive17IntervalEvaluatorC1ENSt3__110shared_ptrINS_4DeckEEE
0000000000009a90 T __ZN7libfive17IntervalEvaluatorC1ENSt3__110shared_ptrINS_4DeckEEERKNS1_3mapIPKvfNS1_4lessIS7_EENS1_9allocatorINS1_4pairIKS7_fEEEEEE
00000000000094c0 T __ZN7libfive17IntervalEvaluatorC1ERKNS_4TreeE
00000000000099b0 T __ZN7libfive17IntervalEvaluatorC1ERKNS_4TreeERKNSt3__13mapIPKvfNS4_4lessIS7_EENS4_9allocatorINS4_4pairIKS7_fEEEEEE
0000000000009410 T __ZN7libfive17IntervalEvaluatorC2ENSt3__110shared_ptrINS_4DeckEEE
0000000000009730 T __ZN7libfive17IntervalEvaluatorC2ENSt3__110shared_ptrINS_4DeckEEERKNS1_3mapIPKvfNS1_4lessIS7_EENS1_9allocatorINS1_4pairIKS7_fEEEEEE
0000000000009330 T __ZN7libfive17IntervalEvaluatorC2ERKNS_4TreeE
0000000000009640 T __ZN7libfive17IntervalEvaluatorC2ERKNS_4TreeERKNSt3__13mapIPKvfNS4_4lessIS7_EENS4_9allocatorINS4_4pairIKS7_fEEEEEE
000000000000a050 T __ZN7libfive17IntervalEvaluatorclENS_6Opcode6OpcodeEjjj
000000000000fbb0 T __ZN7libfive17JacobianEvaluator8gradientERKN5Eigen6MatrixIfLi3ELi1ELi0ELi3ELi1EEE
000000000000fbe0 T __ZN7libfive17JacobianEvaluator8gradientERKN5Eigen6MatrixIfLi3ELi1ELi0ELi3ELi1EEERKNS_4TapeE
000000000000f560 T __ZN7libfive17JacobianEvaluatorC1ENSt3__110shared_ptrINS_4DeckEEE
000000000000f8e0 T __ZN7libfive17JacobianEvaluatorC1ENSt3__110shared_ptrINS_4DeckEEERKNS1_3mapIPKvfNS1_4lessIS7_EENS1_9allocatorINS1_4pairIKS7_fEEEEEE
000000000000f490 T __ZN7libfive17JacobianEvaluatorC1ERKNS_4TreeE
000000000000f800 T __ZN7libfive17JacobianEvaluatorC1ERKNS_4TreeERKNSt3__13mapIPKvfNS4_4lessIS7_EENS4_9allocatorINS4_4pairIKS7_fEEEEEE
000000000000f3e0 T __ZN7libfive17JacobianEvaluatorC2ENSt3__110shared_ptrINS_4DeckEEE
000000000000f700 T __ZN7libfive17JacobianEvaluatorC2ENSt3__110shared_ptrINS_4DeckEEERKNS1_3mapIPKvfNS1_4lessIS7_EENS1_9allocatorINS1_4pairIKS7_fEEEEEE
000000000000f300 T __ZN7libfive17JacobianEvaluatorC2ERKNS_4TreeE
000000000000f610 T __ZN7libfive17JacobianEvaluatorC2ERKNS_4TreeERKNSt3__13mapIPKvfNS4_4lessIS7_EENS4_9allocatorINS4_4pairIKS7_fEEEEEE
000000000011d850 T __ZN7libfive17TransformedOracle10evalDerivsEN5Eigen5BlockINS1_5ArrayIfLi3ELin1ELi0ELi3ELin1EEELi3ELi1ELb1EEEm
000000000011e4b0 T __ZN7libfive17TransformedOracle12evalFeaturesERN5boost9container12small_vectorINS_7FeatureELm4EvvEE
000000000011d0b0 T __ZN7libfive17TransformedOracle12evalIntervalERNS_8IntervalE
000000000011d750 T __ZN7libfive17TransformedOracle14checkAmbiguousEN5Eigen5BlockINS1_5ArrayIbLi1ELi256ELi1ELi1ELi256EEELi1ELin1ELb0EEE
000000000011dd60 T __ZN7libfive17TransformedOracle14evalDerivArrayEN5Eigen5BlockINS1_5ArrayIfLi3ELi256ELi0ELi3ELi256EEELi3ELin1ELb1EEE
000000000011ce60 T __ZN7libfive17TransformedOracle3setERKN5Eigen6MatrixIfLi3ELi1ELi0ELi3ELi1EEEm
000000000011f920 T __ZN7libfive17TransformedOracle4pushENS_4Tape4TypeE
000000000011fda0 T __ZN7libfive17TransformedOracle7Context10isTerminalEv
000000000011d4c0 T __ZN7libfive17TransformedOracle9evalArrayEN5Eigen5BlockINS1_5ArrayIfLin1ELi256ELi1ELin1ELi256EEELi1ELin1ELb0EEE
000000000011d190 T __ZN7libfive17TransformedOracle9evalPointERfm
000000000011ce50 T __ZN7libfive17TransformedOracleC1ENSt3__110unique_ptrINS_6OracleENS1_14default_deleteIS3_EEEENS_4TreeES7_S7_
000000000011cd30 T __ZN7libfive17TransformedOracleC2ENSt3__110unique_ptrINS_6OracleENS1_14default_deleteIS3_EEEENS_4TreeES7_S7_
00000000000d0be0 T __ZN7libfive18SimplexDebugMesher4loadILNS_4Axis4AxisE1EEEvRKNSt3__15arrayIPKNS_11SimplexTreeILj3EEELm4EEE
00000000000d1ae0 T __ZN7libfive18SimplexDebugMesher4loadILNS_4Axis4AxisE2EEEvRKNSt3__15arrayIPKNS_11SimplexTreeILj3EEELm4EEE
00000000000d29f0 T __ZN7libfive18SimplexDebugMesher4loadILNS_4Axis4AxisE4EEEvRKNSt3__15arrayIPKNS_11SimplexTreeILj3EEELm4EEE
00000000000d3950 T __ZN7libfive18SimplexDebugMesherC1ERNS_13PerThreadBRepILj3EEENS_4TreeE
00000000000d39d0 T __ZN7libfive18SimplexDebugMesherC1ERNS_13PerThreadBRepILj3EEEPNS_9EvaluatorE
00000000000d38f0 T __ZN7libfive18SimplexDebugMesherC2ERNS_13PerThreadBRepILj3EEENS_4TreeE
00000000000d39b0 T __ZN7libfive18SimplexDebugMesherC2ERNS_13PerThreadBRepILj3EEEPNS_9EvaluatorE
00000000000d3ac0 T __ZN7libfive18SimplexDebugMesherD1Ev
00000000000d39f0 T __ZN7libfive18SimplexDebugMesherD2Ev
000000000001be30 T __ZN7libfive19DerivArrayEvaluator18getAmbiguousDerivsEm
000000000001be60 T __ZN7libfive19DerivArrayEvaluator18getAmbiguousDerivsEmRKNS_4TapeE
000000000001c560 T __ZN7libfive19DerivArrayEvaluator5derivERKN5Eigen6MatrixIfLi3ELi1ELi0ELi3ELi1EEE
000000000001c640 T __ZN7libfive19DerivArrayEvaluator5derivERKN5Eigen6MatrixIfLi3ELi1ELi0ELi3ELi1EEERKNS_4TapeE
000000000001cce0 T __ZN7libfive19DerivArrayEvaluator6derivsEm
000000000001c720 T __ZN7libfive19DerivArrayEvaluator6derivsEmRKNS_4TapeE
000000000001b420 T __ZN7libfive19DerivArrayEvaluatorC1ENSt3__110shared_ptrINS_4DeckEEE
000000000001ba30 T __ZN7libfive19DerivArrayEvaluatorC1ENSt3__110shared_ptrINS_4DeckEEERKNS1_3mapIPKvfNS1_4lessIS7_EENS1_9allocatorINS1_4pairIKS7_fEEEEEE
000000000001b350 T __ZN7libfive19DerivArrayEvaluatorC1ERKNS_4TreeE
000000000001b950 T __ZN7libfive19DerivArrayEvaluatorC1ERKNS_4TreeERKNSt3__13mapIPKvfNS4_4lessIS7_EENS4_9allocatorINS4_4pairIKS7_fEEEEEE
000000000001b2a0 T __ZN7libfive19DerivArrayEvaluatorC2ENSt3__110shared_ptrINS_4DeckEEE
000000000001b5c0 T __ZN7libfive19DerivArrayEvaluatorC2ENSt3__110shared_ptrINS_4DeckEEERKNS1_3mapIPKvfNS1_4lessIS7_EENS1_9allocatorINS1_4pairIKS7_fEEEEEE
000000000001b1c0 T __ZN7libfive19DerivArrayEvaluatorC2ERKNS_4TreeE
000000000001b4d0 T __ZN7libfive19DerivArrayEvaluatorC2ERKNS_4TreeERKNSt3__13mapIPKvfNS4_4lessIS7_EENS4_9allocatorINS4_4pairIKS7_fEEEEEE
000000000001cd10 T __ZN7libfive19DerivArrayEvaluatorclENS_6Opcode6OpcodeEjjj
00000000000db580 T __ZN7libfive19SimplexLeafSubspaceILj2EE5resetEv
00000000000db5e0 T __ZN7libfive19SimplexLeafSubspaceILj2EEC1Ev
00000000000db4f0 T __ZN7libfive19SimplexLeafSubspaceILj2EEC2Ev
00000000000db690 T __ZN7libfive19SimplexLeafSubspaceILj2EEdaEPv
00000000000db670 T __ZN7libfive19SimplexLeafSubspaceILj2EEnaEm
00000000000e2e70 T __ZN7libfive19SimplexLeafSubspaceILj3EE5resetEv
00000000000e2f00 T __ZN7libfive19SimplexLeafSubspaceILj3EEC1Ev
00000000000e2d80 T __ZN7libfive19SimplexLeafSubspaceILj3EEC2Ev
00000000000e3010 T __ZN7libfive19SimplexLeafSubspaceILj3EEdaEPv
00000000000e2ff0 T __ZN7libfive19SimplexLeafSubspaceILj3EEnaEm
00000000001220b0 T __ZN7libfive23TransformedOracleClause11deserializeERNS_12DeserializerE
0000000000121510 T __ZN7libfive23TransformedOracleClauseC1ENS_4TreeES1_S1_S1_
0000000000121440 T __ZN7libfive23TransformedOracleClauseC2ENS_4TreeES1_S1_S1_
000000000011c1f0 T __ZN7libfive3absERKNS_4TreeE
000000000011c250 T __ZN7libfive3cosERKNS_4TreeE
000000000011c310 T __ZN7libfive3expERKNS_4TreeE
000000000011c2f0 T __ZN7libfive3logERKNS_4TreeE
000000000011c3c0 T __ZN7libfive3maxERKNS_4TreeES2_
000000000011c390 T __ZN7libfive3minERKNS_4TreeES2_
000000000011c4e0 T __ZN7libfive3modERKNS_4TreeES2_
000000000011c480 T __ZN7libfive3powERKNS_4TreeES2_
000000000011c230 T __ZN7libfive3sinERKNS_4TreeE
000000000011c270 T __ZN7libfive3tanERKNS_4TreeE
0000000000007270 T __ZN7libfive4Deck11bindOraclesERKNS_4TapeE
0000000000007370 T __ZN7libfive4Deck13unbindOraclesEv
0000000000007260 T __ZN7libfive4DeckC1ERKNS_4TreeE
0000000000005310 T __ZN7libfive4DeckC2ERKNS_4TreeE
000000000004b890 T __ZN7libfive4Mesh4lineERKN5Eigen6MatrixIfLi3ELi1ELi0ELi3ELi1EEES5_
000000000004a020 T __ZN7libfive4Mesh6renderEPNS_9EvaluatorERKNS_6RegionILj3EEERKNS_12BRepSettingsE
0000000000049b90 T __ZN7libfive4Mesh6renderERKNS_4TreeERKNS_6RegionILj3EEERKNS_12BRepSettingsE
000000000004bc50 T __ZN7libfive4Mesh7saveSTLERKNSt3__112basic_stringIcNS1_11char_traitsIcEENS1_9allocatorIcEEEERKNS1_4listIPKS0_NS5_ISC_EEEE
0000000000035dc0 T __ZN7libfive4Tape4pushERNS_4DeckENSt3__18functionIFNS0_4KeepENS_6Opcode6OpcodeEjjjEEENS0_4TypeE
0000000000035ee0 T __ZN7libfive4Tape4pushERNS_4DeckENSt3__18functionIFNS0_4KeepENS_6Opcode6OpcodeEjjjEEENS0_4TypeERKNS_6RegionILj3EEE
0000000000036e70 T __ZN7libfive4Tape7getBaseERKN5Eigen6MatrixIfLi3ELi1ELi0ELi3ELi1EEE
0000000000036d30 T __ZN7libfive4Tape7getBaseERKNS_6RegionILj3EEE
0000000000106ea0 T __ZN7libfive4Tree11deserializeERNSt3__113basic_istreamIcNS1_11char_traitsIcEEEE
0000000000104e10 T __ZN7libfive4Tree1XEv
0000000000104f30 T __ZN7libfive4Tree1YEv
0000000000105050 T __ZN7libfive4Tree1ZEv
00000000001058f0 T __ZN7libfive4Tree3oneEv
00000000001046b0 T __ZN7libfive4Tree3varEv
0000000000106f50 T __ZN7libfive4Tree4loadERKNSt3__112basic_stringIcNS1_11char_traitsIcEENS1_9allocatorIcEEEE
0000000000104820 T __ZN7libfive4Tree5unaryENS_6Opcode6OpcodeERKS0_
0000000000105170 T __ZN7libfive4Tree6binaryENS_6Opcode6OpcodeERKS0_S4_
0000000000104c60 T __ZN7libfive4Tree7invalidEv
00000000001046d0 T __ZN7libfive4Tree7nullaryENS_6Opcode6OpcodeE
000000000010b1c0 T __ZN7libfive4Tree7reclaimEPKNS_8TreeDataE
000000000010b1b0 T __ZN7libfive4Tree7releaseEv
00000000001045a0 T __ZN7libfive4TreeC1EONSt3__110unique_ptrIKNS_12OracleClauseENS1_14default_deleteIS4_EEEE
0000000000104470 T __ZN7libfive4TreeC1EPKNS_8TreeDataEbj
0000000000104350 T __ZN7libfive4TreeC1Ed
0000000000104490 T __ZN7libfive4TreeC2EONSt3__110unique_ptrIKNS_12OracleClauseENS1_14default_deleteIS4_EEEE
0000000000104450 T __ZN7libfive4TreeC2EPKNS_8TreeDataEbj
0000000000104170 T __ZN7libfive4TreeC2Ed
0000000000104160 T __ZN7libfive4TreeD1Ev
0000000000103ab0 T __ZN7libfive4TreeD2Ev
000000000011c2b0 T __ZN7libfive4acosERKNS_4TreeE
000000000011c290 T __ZN7libfive4asinERKNS_4TreeE
000000000011c2d0 T __ZN7libfive4atanERKNS_4TreeE
000000000011c1d0 T __ZN7libfive4sqrtERKNS_4TreeE
00000000000c5670 T __ZN7libfive5XTreeILj2ENS_10HybridTreeILj2EEENS_10HybridLeafILj2EEEE4doneEv
00000000000c5500 T __ZN7libfive5XTreeILj2ENS_10HybridTreeILj2EEENS_10HybridLeafILj2EEEE5resetEPS2_jRKNS_6RegionILj2EEE
00000000000c5650 T __ZN7libfive5XTreeILj2ENS_10HybridTreeILj2EEENS_10HybridLeafILj2EEEE7setTypeENS_8Interval5StateE
00000000000c5540 T __ZN7libfive5XTreeILj2ENS_10HybridTreeILj2EEENS_10HybridLeafILj2EEEEC1EPS2_jRKNS_6RegionILj2EEE
00000000000c5430 T __ZN7libfive5XTreeILj2ENS_10HybridTreeILj2EEENS_10HybridLeafILj2EEEEC1Ev
00000000000c5480 T __ZN7libfive5XTreeILj2ENS_10HybridTreeILj2EEENS_10HybridLeafILj2EEEEC2EPS2_jRKNS_6RegionILj2EEE
00000000000c53e0 T __ZN7libfive5XTreeILj2ENS_10HybridTreeILj2EEENS_10HybridLeafILj2EEEEC2Ev
00000000000ea960 T __ZN7libfive5XTreeILj2ENS_11SimplexTreeILj2EEENS_11SimplexLeafILj2EEEE4doneEv
00000000000ea7f0 T __ZN7libfive5XTreeILj2ENS_11SimplexTreeILj2EEENS_11SimplexLeafILj2EEEE5resetEPS2_jRKNS_6RegionILj2EEE
00000000000ea940 T __ZN7libfive5XTreeILj2ENS_11SimplexTreeILj2EEENS_11SimplexLeafILj2EEEE7setTypeENS_8Interval5StateE
00000000000ea830 T __ZN7libfive5XTreeILj2ENS_11SimplexTreeILj2EEENS_11SimplexLeafILj2EEEEC1EPS2_jRKNS_6RegionILj2EEE
00000000000ea720 T __ZN7libfive5XTreeILj2ENS_11SimplexTreeILj2EEENS_11SimplexLeafILj2EEEEC1Ev
00000000000ea770 T __ZN7libfive5XTreeILj2ENS_11SimplexTreeILj2EEENS_11SimplexLeafILj2EEEEC2EPS2_jRKNS_6RegionILj2EEE
00000000000ea6d0 T __ZN7libfive5XTreeILj2ENS_11SimplexTreeILj2EEENS_11SimplexLeafILj2EEEEC2Ev
0000000000087120 T __ZN7libfive5XTreeILj2ENS_6DCTreeILj2EEENS_6DCLeafILj2EEEE4doneEv
0000000000086f90 T __ZN7libfive5XTreeILj2ENS_6DCTreeILj2EEENS_6DCLeafILj2EEEE5resetEPS2_jRKNS_6RegionILj2EEE
0000000000087110 T __ZN7libfive5XTreeILj2ENS_6DCTreeILj2EEENS_6DCLeafILj2EEEE7setTypeENS_8Interval5StateE
0000000000086fd0 T __ZN7libfive5XTreeILj2ENS_6DCTreeILj2EEENS_6DCLeafILj2EEEEC1EPS2_jRKNS_6RegionILj2EEE
0000000000086ec0 T __ZN7libfive5XTreeILj2ENS_6DCTreeILj2EEENS_6DCLeafILj2EEEEC1Ev
0000000000086f10 T __ZN7libfive5XTreeILj2ENS_6DCTreeILj2EEENS_6DCLeafILj2EEEEC2EPS2_jRKNS_6RegionILj2EEE
0000000000086e70 T __ZN7libfive5XTreeILj2ENS_6DCTreeILj2EEENS_6DCLeafILj2EEEEC2Ev
00000000000c5a40 T __ZN7libfive5XTreeILj3ENS_10HybridTreeILj3EEENS_10HybridLeafILj3EEEE4doneEv
00000000000c5830 T __ZN7libfive5XTreeILj3ENS_10HybridTreeILj3EEENS_10HybridLeafILj3EEEE5resetEPS2_jRKNS_6RegionILj3EEE
00000000000c5a20 T __ZN7libfive5XTreeILj3ENS_10HybridTreeILj3EEENS_10HybridLeafILj3EEEE7setTypeENS_8Interval5StateE
00000000000c5890 T __ZN7libfive5XTreeILj3ENS_10HybridTreeILj3EEENS_10HybridLeafILj3EEEEC1EPS2_jRKNS_6RegionILj3EEE
00000000000c5700 T __ZN7libfive5XTreeILj3ENS_10HybridTreeILj3EEENS_10HybridLeafILj3EEEEC1Ev
00000000000c5770 T __ZN7libfive5XTreeILj3ENS_10HybridTreeILj3EEENS_10HybridLeafILj3EEEEC2EPS2_jRKNS_6RegionILj3EEE
00000000000c5690 T __ZN7libfive5XTreeILj3ENS_10HybridTreeILj3EEENS_10HybridLeafILj3EEEEC2Ev
00000000000ead30 T __ZN7libfive5XTreeILj3ENS_11SimplexTreeILj3EEENS_11SimplexLeafILj3EEEE4doneEv
00000000000eab20 T __ZN7libfive5XTreeILj3ENS_11SimplexTreeILj3EEENS_11SimplexLeafILj3EEEE5resetEPS2_jRKNS_6RegionILj3EEE
00000000000ead10 T __ZN7libfive5XTreeILj3ENS_11SimplexTreeILj3EEENS_11SimplexLeafILj3EEEE7setTypeENS_8Interval5StateE
00000000000eab80 T __ZN7libfive5XTreeILj3ENS_11SimplexTreeILj3EEENS_11SimplexLeafILj3EEEEC1EPS2_jRKNS_6RegionILj3EEE
00000000000ea9f0 T __ZN7libfive5XTreeILj3ENS_11SimplexTreeILj3EEENS_11SimplexLeafILj3EEEEC1Ev
00000000000eaa60 T __ZN7libfive5XTreeILj3ENS_11SimplexTreeILj3EEENS_11SimplexLeafILj3EEEEC2EPS2_jRKNS_6RegionILj3EEE
00000000000ea980 T __ZN7libfive5XTreeILj3ENS_11SimplexTreeILj3EEENS_11SimplexLeafILj3EEEEC2Ev
00000000000876b0 T __ZN7libfive5XTreeILj3ENS_6DCTreeILj3EEENS_6DCLeafILj3EEEE4doneEv
0000000000087430 T __ZN7libfive5XTreeILj3ENS_6DCTreeILj3EEENS_6DCLeafILj3EEEE5resetEPS2_jRKNS_6RegionILj3EEE
00000000000876a0 T __ZN7libfive5XTreeILj3ENS_6DCTreeILj3EEENS_6DCLeafILj3EEEE7setTypeENS_8Interval5StateE
0000000000087490 T __ZN7libfive5XTreeILj3ENS_6DCTreeILj3EEENS_6DCLeafILj3EEEEC1EPS2_jRKNS_6RegionILj3EEE
0000000000087300 T __ZN7libfive5XTreeILj3ENS_6DCTreeILj3EEENS_6DCLeafILj3EEEEC1Ev
0000000000087370 T __ZN7libfive5XTreeILj3ENS_6DCTreeILj3EEENS_6DCLeafILj3EEEEC2EPS2_jRKNS_6RegionILj3EEE
0000000000087290 T __ZN7libfive5XTreeILj3ENS_6DCTreeILj3EEENS_6DCLeafILj3EEEEC2Ev
00000000000fa160 T __ZN7libfive5XTreeILj3ENS_7VolTreeEvE4doneEv
00000000000f9f50 T __ZN7libfive5XTreeILj3ENS_7VolTreeEvE5resetEPS1_jRKNS_6RegionILj3EEE
00000000000fa140 T __ZN7libfive5XTreeILj3ENS_7VolTreeEvE7setTypeENS_8Interval5StateE
00000000000f9fb0 T __ZN7libfive5XTreeILj3ENS_7VolTreeEvEC1EPS1_jRKNS_6RegionILj3EEE
00000000000f9e20 T __ZN7libfive5XTreeILj3ENS_7VolTreeEvEC1Ev
00000000000f9e90 T __ZN7libfive5XTreeILj3ENS_7VolTreeEvEC2EPS1_jRKNS_6RegionILj3EEE
00000000000f9db0 T __ZN7libfive5XTreeILj3ENS_7VolTreeEvEC2Ev
000000000011c450 T __ZN7libfive5atan2ERKNS_4TreeES2_
000000000006b500 T __ZN7libfive6DCLeafILj2EE5resetEv
000000000006b560 T __ZN7libfive6DCLeafILj2EEC1Ev
000000000006b4a0 T __ZN7libfive6DCLeafILj2EEC2Ev
000000000006b5e0 T __ZN7libfive6DCLeafILj2EEdaEPv
000000000006b5c0 T __ZN7libfive6DCLeafILj2EEnaEm
0000000000084bd0 T __ZN7libfive6DCLeafILj3EE5resetEv
0000000000084c70 T __ZN7libfive6DCLeafILj3EEC1Ev
0000000000084b30 T __ZN7libfive6DCLeafILj3EEC2Ev
0000000000084d30 T __ZN7libfive6DCLeafILj3EEdaEPv
0000000000084d10 T __ZN7libfive6DCLeafILj3EEnaEm
0000000000069850 T __ZN7libfive6DCTreeILj2EE10findVertexEj
000000000006b1a0 T __ZN7libfive6DCTreeILj2EE11isSingletonEPKS1_
00000000000675a0 T __ZN7libfive6DCTreeILj2EE12evalIntervalEPNS_9EvaluatorERKNSt3__110shared_ptrINS_4TapeEEERNS_10ObjectPoolIJS1_NS_6DCLeafILj2EEENS_12IntersectionILj2EEEEEE
000000000006b2d0 T __ZN7libfive6DCTreeILj2EE13hasSingletonsEv
000000000006a360 T __ZN7libfive6DCTreeILj2EE14edgesFromChildEj
000000000006b2e0 T __ZN7libfive6DCTreeILj2EE14singletonEmptyEv
00000000000696e0 T __ZN7libfive6DCTreeILj2EE15buildCornerMaskERKNSt3__15arrayINS_8Interval5StateELm4EEE
0000000000069b60 T __ZN7libfive6DCTreeILj2EE15collectChildrenEPNS_9EvaluatorERKNSt3__110shared_ptrINS_4TapeEEERNS_10ObjectPoolIJS1_NS_6DCLeafILj2EEENS_12IntersectionILj2EEEEEEd
000000000006b3c0 T __ZN7libfive6DCTreeILj2EE15singletonFilledEv
000000000006a220 T __ZN7libfive6DCTreeILj2EE16leafsAreManifoldERKNSt3__15arrayIPS1_Lm4EEERKNS3_INS_8Interval5StateELm4EEE
0000000000069720 T __ZN7libfive6DCTreeILj2EE16saveIntersectionERKN5Eigen6MatrixIdLi2ELi1ELi0ELi2ELi1EEES6_dmRNS_10ObjectPoolIJS1_NS_6DCLeafILj2EEENS_12IntersectionILj2EEEEEE
0000000000069700 T __ZN7libfive6DCTreeILj2EE18cornersAreManifoldEh
0000000000067530 T __ZN7libfive6DCTreeILj2EE5emptyEv
0000000000067a10 T __ZN7libfive6DCTreeILj2EE8evalLeafEPNS_9EvaluatorERKNSt3__110shared_ptrINS_4TapeEEERNS_10ObjectPoolIJS1_NS_6DCLeafILj2EEENS_12IntersectionILj2EEEEEERKNS_11DCNeighborsILj2EEE
00000000000677c0 T __ZN7libfive6DCTreeILj2EE9releaseToERNS_10ObjectPoolIJS1_NS_6DCLeafILj2EEENS_12IntersectionILj2EEEEEE
000000000006b370 T __ZN7libfive6DCTreeILj2EEC1ENS_8Interval5StateE
00000000000674b0 T __ZN7libfive6DCTreeILj2EEC1EPS1_jRKNS_6RegionILj2EEE
00000000000673e0 T __ZN7libfive6DCTreeILj2EEC1Ev
000000000006b450 T __ZN7libfive6DCTreeILj2EEC2ENS_8Interval5StateE
0000000000067430 T __ZN7libfive6DCTreeILj2EEC2EPS1_jRKNS_6RegionILj2EEE
0000000000067390 T __ZN7libfive6DCTreeILj2EEC2Ev
000000000006b140 T __ZN7libfive6DCTreeILj2EEdaEPv
000000000006b120 T __ZN7libfive6DCTreeILj2EEnaEm
0000000000081f60 T __ZN7libfive6DCTreeILj3EE10findVertexEj
0000000000084740 T __ZN7libfive6DCTreeILj3EE11isSingletonEPKS1_
00000000000800f0 T __ZN7libfive6DCTreeILj3EE12evalIntervalEPNS_9EvaluatorERKNSt3__110shared_ptrINS_4TapeEEERNS_10ObjectPoolIJS1_NS_6DCLeafILj3EEENS_12IntersectionILj3EEEEEE
00000000000848c0 T __ZN7libfive6DCTreeILj3EE13hasSingletonsEv
0000000000083620 T __ZN7libfive6DCTreeILj3EE14edgesFromChildEj
00000000000848d0 T __ZN7libfive6DCTreeILj3EE14singletonEmptyEv
0000000000081ca0 T __ZN7libfive6DCTreeILj3EE15buildCornerMaskERKNSt3__15arrayINS_8Interval5StateELm8EEE
0000000000082390 T __ZN7libfive6DCTreeILj3EE15collectChildrenEPNS_9EvaluatorERKNSt3__110shared_ptrINS_4TapeEEERNS_10ObjectPoolIJS1_NS_6DCLeafILj3EEENS_12IntersectionILj3EEEEEEd
0000000000084a00 T __ZN7libfive6DCTreeILj3EE15singletonFilledEv
00000000000830b0 T __ZN7libfive6DCTreeILj3EE16leafsAreManifoldERKNSt3__15arrayIPS1_Lm8EEERKNS3_INS_8Interval5StateELm8EEE
0000000000081d40 T __ZN7libfive6DCTreeILj3EE16saveIntersectionERKN5Eigen6MatrixIdLi3ELi1ELi0ELi3ELi1EEES6_dmRNS_10ObjectPoolIJS1_NS_6DCLeafILj3EEENS_12IntersectionILj3EEEEEE
0000000000081d20 T __ZN7libfive6DCTreeILj3EE18cornersAreManifoldEh
0000000000080060 T __ZN7libfive6DCTreeILj3EE5emptyEv
00000000000803c0 T __ZN7libfive6DCTreeILj3EE8evalLeafEPNS_9EvaluatorERKNSt3__110shared_ptrINS_4TapeEEERNS_10ObjectPoolIJS1_NS_6DCLeafILj3EEENS_12IntersectionILj3EEEEEERKNS_11DCNeighborsILj3EEE
0000000000080360 T __ZN7libfive6DCTreeILj3EE9releaseToERNS_10ObjectPoolIJS1_NS_6DCLeafILj3EEENS_12IntersectionILj3EEEEEE
0000000000084990 T __ZN7libfive6DCTreeILj3EEC1ENS_8Interval5StateE
000000000007ffa0 T __ZN7libfive6DCTreeILj3EEC1EPS1_jRKNS_6RegionILj3EEE
000000000007fe70 T __ZN7libfive6DCTreeILj3EEC1Ev
0000000000084ac0 T __ZN7libfive6DCTreeILj3EEC2ENS_8Interval5StateE
000000000007fee0 T __ZN7libfive6DCTreeILj3EEC2EPS1_jRKNS_6RegionILj3EEE
000000000007fe00 T __ZN7libfive6DCTreeILj3EEC2Ev
00000000000846e0 T __ZN7libfive6DCTreeILj3EEdaEPv
00000000000846c0 T __ZN7libfive6DCTreeILj3EEnaEm
00000000000feff0 T __ZN7libfive6Opcode10toOpStringENS0_6OpcodeE
00000000000fe3b0 T __ZN7libfive6Opcode11toScmStringENS0_6OpcodeE
00000000000ff110 T __ZN7libfive6Opcode12isIdempotentENS0_6OpcodeE
00000000000fed80 T __ZN7libfive6Opcode13fromScmStringENSt3__112basic_stringIcNS1_11char_traitsIcEENS1_9allocatorIcEEEE
00000000000ff100 T __ZN7libfive6Opcode13isCommutativeENS0_6OpcodeE
00000000000fe0d0 T __ZN7libfive6Opcode4argsENS0_6OpcodeE
00000000000fe100 T __ZN7libfive6Opcode8toStringENS0_6OpcodeE
00000000000fd110 T __ZN7libfive6Solver8findRootERKNS_4TreeERKNSt3__13mapIPKvfNS4_4lessIS7_EENS4_9allocatorINS4_4pairIKS7_fEEEEEEN5Eigen6MatrixIfLi3ELi1ELi0ELi3ELi1EEERKNS4_3setIS7_S9_NSA_IS7_EEEEj
00000000000fd3a0 T __ZN7libfive6Solver8findRootERNS_17JacobianEvaluatorERKNSt3__110shared_ptrINS_4TapeEEENS3_3mapIPKvfNS3_4lessISB_EENS3_9allocatorINS3_4pairIKSB_fEEEEEEN5Eigen6MatrixIfLi3ELi1ELi0ELi3ELi1EEERKNS3_3setISB_SD_NSE_ISB_EEEEj
0000000000040300 T __ZN7libfive6Voxels4ViewC1ERKN5Eigen6MatrixIfLi3ELi1ELi0ELi3ELi1EEES6_RKNS3_IiLi3ELi1ELi0ELi3ELi1EEES9_RKNS3_IPKfLi3ELi1ELi0ELi3ELi1EEE
00000000000401a0 T __ZN7libfive6Voxels4ViewC1ERKS0_
0000000000040370 T __ZN7libfive6Voxels4ViewC1Ev
00000000000402a0 T __ZN7libfive6Voxels4ViewC2ERKN5Eigen6MatrixIfLi3ELi1ELi0ELi3ELi1EEES6_RKNS3_IiLi3ELi1ELi0ELi3ELi1EEES9_RKNS3_IPKfLi3ELi1ELi0ELi3ELi1EEE
0000000000040220 T __ZN7libfive6Voxels4ViewC2ERKS0_
0000000000040360 T __ZN7libfive6Voxels4ViewC2Ev
00000000000400c0 T __ZN7libfive6VoxelsC1ERKN5Eigen6MatrixIfLi3ELi1ELi0ELi3ELi1EEES5_S5_
0000000000040090 T __ZN7libfive6VoxelsC1ERKN5Eigen6MatrixIfLi3ELi1ELi0ELi3ELi1EEES5_f
000000000003fa60 T __ZN7libfive6VoxelsC2ERKN5Eigen6MatrixIfLi3ELi1ELi0ELi3ELi1EEES5_S5_
000000000003fa30 T __ZN7libfive6VoxelsC2ERKN5Eigen6MatrixIfLi3ELi1ELi0ELi3ELi1EEES5_f
000000000011c1b0 T __ZN7libfive6squareERKNS_4TreeE
00000000001011b0 T __ZN7libfive7Archive11deserializeERNSt3__113basic_istreamIcNS1_11char_traitsIcEEEE
0000000000100f10 T __ZN7libfive7Archive8addShapeENS_4TreeENSt3__112basic_stringIcNS2_11char_traitsIcEENS2_9allocatorIcEEEES8_NS2_3mapIPKvS8_NS2_4lessISB_EENS6_INS2_4pairIKSB_S8_EEEEEE
0000000000101150 T __ZN7libfive7Archive9serializeERNSt3__113basic_ostreamIcNS1_11char_traitsIcEEEE
0000000000037760 T __ZN7libfive7Feature4pushERKN5Eigen6MatrixIfLi3ELi1ELi0ELi3ELi1EEE
0000000000038450 T __ZN7libfive7Feature4pushERKS0_
0000000000037110 T __ZN7libfive7FeatureC1ERKN5Eigen6MatrixIfLi3ELi1ELi0ELi3ELi1EEE
00000000000371d0 T __ZN7libfive7FeatureC1ERKN5Eigen6MatrixIfLi3ELi1ELi0ELi3ELi1EEERKS0_
00000000000373c0 T __ZN7libfive7FeatureC1ERKN5Eigen6MatrixIfLi3ELi1ELi0ELi3ELi1EEERKS0_S7_
0000000000037750 T __ZN7libfive7FeatureC1ERKS0_RKN5Eigen6MatrixIfLi3ELi3ELi0ELi3ELi3EEE
00000000000370e0 T __ZN7libfive7FeatureC2ERKN5Eigen6MatrixIfLi3ELi1ELi0ELi3ELi1EEE
0000000000037140 T __ZN7libfive7FeatureC2ERKN5Eigen6MatrixIfLi3ELi1ELi0ELi3ELi1EEERKS0_
0000000000037260 T __ZN7libfive7FeatureC2ERKN5Eigen6MatrixIfLi3ELi1ELi0ELi3ELi1EEERKS0_S7_
00000000000373d0 T __ZN7libfive7FeatureC2ERKS0_RKN5Eigen6MatrixIfLi3ELi3ELi0ELi3ELi3EEE
00000000000fa470 T __ZN7libfive7VolTree12evalIntervalEPNS_9EvaluatorERKNSt3__110shared_ptrINS_4TapeEEERNS_10ObjectPoolIJS0_EEE
00000000000fa870 T __ZN7libfive7VolTree15collectChildrenEPNS_9EvaluatorERKNSt3__110shared_ptrINS_4TapeEEERNS_10ObjectPoolIJS0_EEEd
00000000000fa3e0 T __ZN7libfive7VolTree5emptyEv
00000000000fa690 T __ZN7libfive7VolTree8evalLeafEPNS_9EvaluatorERKNSt3__110shared_ptrINS_4TapeEEERNS_10ObjectPoolIJS0_EEERKNS_12VolNeighborsE
00000000000faab0 T __ZN7libfive7VolTree9releaseToERNS_10ObjectPoolIJS0_EEE
00000000000fa240 T __ZN7libfive7VolTreeC1EPS0_jRKNS_6RegionILj3EEE
00000000000fa370 T __ZN7libfive7VolTreeC1Ev
00000000000fa180 T __ZN7libfive7VolTreeC2EPS0_jRKNS_6RegionILj3EEE
00000000000fa300 T __ZN7libfive7VolTreeC2Ev
000000000011c540 T __ZN7libfive7compareERKNS_4TreeES2_
000000000011c510 T __ZN7libfive7nanfillERKNS_4TreeES2_
00000000000405a0 T __ZN7libfive8Contours6renderERKNS_4TreeERKNS_6RegionILj2EEERKNS_12BRepSettingsE
00000000000414d0 T __ZN7libfive8Contours7collectERKNSt3__16vectorINS_13PerThreadBRepILj2EEENS1_9allocatorIS4_EEEE
0000000000040e80 T __ZN7libfive8Contours7saveSVGERKNSt3__112basic_stringIcNS1_11char_traitsIcEENS1_9allocatorIcEEEE
000000000005d020 T __ZN7libfive8DCMesher4loadILNS_4Axis4AxisE1EEEvRKNSt3__15arrayIPKNS_6DCTreeILj3EEELm4EEE
000000000005e9b0 T __ZN7libfive8DCMesher4loadILNS_4Axis4AxisE2EEEvRKNSt3__15arrayIPKNS_6DCTreeILj3EEELm4EEE
0000000000060340 T __ZN7libfive8DCMesher4loadILNS_4Axis4AxisE4EEEvRKNSt3__15arrayIPKNS_6DCTreeILj3EEELm4EEE
000000000011c4b0 T __ZN7libfive8nth_rootERKNS_4TreeES2_
000000000003c010 T __ZN7libfive9Heightmap13saveNormalPNGENSt3__112basic_stringIcNS1_11char_traitsIcEENS1_9allocatorIcEEEE
0000000000039290 T __ZN7libfive9Heightmap4fillEPNS_9EvaluatorERKNSt3__110shared_ptrINS_4TapeEEERKNS_6Voxels4ViewE
0000000000038d30 T __ZN7libfive9Heightmap6pixelsEPNS_9EvaluatorERKNSt3__110shared_ptrINS_4TapeEEERKNS_6Voxels4ViewE
000000000003a050 T __ZN7libfive9Heightmap6renderERKNS_4TreeENS_6VoxelsERKNSt3__16atomicIbEEm
000000000003a490 T __ZN7libfive9Heightmap6renderERKNSt3__16vectorIPNS_9EvaluatorENS1_9allocatorIS4_EEEENS_6VoxelsERKNS1_6atomicIbEE
0000000000039990 T __ZN7libfive9Heightmap7recurseEPNS_9EvaluatorERKNSt3__110shared_ptrINS_4TapeEEERKNS_6Voxels4ViewERKNS3_6atomicIbEE
000000000003b110 T __ZN7libfive9Heightmap7savePNGENSt3__112basic_stringIcNS1_11char_traitsIcEENS1_9allocatorIcEEEE
000000000003a040 T __ZN7libfive9HeightmapC1Ejj
0000000000039ef0 T __ZN7libfive9HeightmapC2Ejj
0000000000095c30 T __ZN7libfive9NeighborsILj2ENS_10HybridTreeILj2EEENS_15HybridNeighborsILj2EEEEC1Ev
0000000000095c10 T __ZN7libfive9NeighborsILj2ENS_10HybridTreeILj2EEENS_15HybridNeighborsILj2EEEEC2Ev
00000000000d3af0 T __ZN7libfive9NeighborsILj2ENS_11SimplexTreeILj2EEENS_16SimplexNeighborsILj2EEEEC1Ev
00000000000d3ad0 T __ZN7libfive9NeighborsILj2ENS_11SimplexTreeILj2EEENS_16SimplexNeighborsILj2EEEEC2Ev
0000000000061f40 T __ZN7libfive9NeighborsILj2ENS_6DCTreeILj2EEENS_11DCNeighborsILj2EEEEC1Ev
0000000000061f20 T __ZN7libfive9NeighborsILj2ENS_6DCTreeILj2EEENS_11DCNeighborsILj2EEEEC2Ev
0000000000095ea0 T __ZN7libfive9NeighborsILj3ENS_10HybridTreeILj3EEENS_15HybridNeighborsILj3EEEEC1Ev
0000000000095e60 T __ZN7libfive9NeighborsILj3ENS_10HybridTreeILj3EEENS_15HybridNeighborsILj3EEEEC2Ev
00000000000d3f60 T __ZN7libfive9NeighborsILj3ENS_11SimplexTreeILj3EEENS_16SimplexNeighborsILj3EEEEC1Ev
00000000000d3f20 T __ZN7libfive9NeighborsILj3ENS_11SimplexTreeILj3EEENS_16SimplexNeighborsILj3EEEEC2Ev
00000000000623e0 T __ZN7libfive9NeighborsILj3ENS_6DCTreeILj3EEENS_11DCNeighborsILj3EEEEC1Ev
00000000000623a0 T __ZN7libfive9NeighborsILj3ENS_6DCTreeILj3EEENS_11DCNeighborsILj3EEEEC2Ev
00000000000f89f0 T __ZN7libfive9NeighborsILj3ENS_7VolTreeENS_12VolNeighborsEEC1Ev
00000000000f89b0 T __ZN7libfive9NeighborsILj3ENS_7VolTreeENS_12VolNeighborsEEC2Ev
000000000011c420 T __ZN7libfivedvERKNS_4TreeES2_
000000000011c570 T __ZN7libfivelsERNSt3__113basic_ostreamIcNS0_11char_traitsIcEEEERKNS_4TreeE
000000000011c3f0 T __ZN7libfivemiERKNS_4TreeES2_
000000000011c360 T __ZN7libfivemlERKNS_4TreeES2_
000000000011c210 T __ZN7libfivengERKNS_4TreeE
000000000011c330 T __ZN7libfiveplERKNS_4TreeES2_
00000000000966b0 T __ZNK7libfive10HybridTreeILj2EE13assignIndicesERKNS_12BRepSettingsE
0000000000096690 T __ZNK7libfive10HybridTreeILj2EE9leafLevelEv
00000000000a08f0 T __ZNK7libfive10HybridTreeILj3EE13assignIndicesERKNS_12BRepSettingsE
00000000000a08d0 T __ZNK7libfive10HybridTreeILj3EE9leafLevelEv
00000000000c67f0 T __ZNK7libfive10ObjectPoolIJNS_10HybridTreeILj2EEENS_10HybridLeafILj2EEEEE10num_blocksEv
00000000000c5c60 T __ZNK7libfive10ObjectPoolIJNS_10HybridTreeILj2EEENS_10HybridLeafILj2EEEEE4nextEv
00000000000c66b0 T __ZNK7libfive10ObjectPoolIJNS_10HybridTreeILj2EEENS_10HybridLeafILj2EEEEE4sizeEv
00000000000c8830 T __ZNK7libfive10ObjectPoolIJNS_10HybridTreeILj3EEENS_10HybridLeafILj3EEEEE10num_blocksEv
00000000000c7ca0 T __ZNK7libfive10ObjectPoolIJNS_10HybridTreeILj3EEENS_10HybridLeafILj3EEEEE4nextEv
00000000000c86f0 T __ZNK7libfive10ObjectPoolIJNS_10HybridTreeILj3EEENS_10HybridLeafILj3EEEEE4sizeEv
00000000000ebdb0 T __ZNK7libfive10ObjectPoolIJNS_11SimplexLeafILj2EEENS_19SimplexLeafSubspaceILj2EEEEE10num_blocksEv
00000000000ec0a0 T __ZNK7libfive10ObjectPoolIJNS_11SimplexLeafILj2EEENS_19SimplexLeafSubspaceILj2EEEEE4nextEv
00000000000ec6b0 T __ZNK7libfive10ObjectPoolIJNS_11SimplexLeafILj2EEENS_19SimplexLeafSubspaceILj2EEEEE4sizeEv
00000000000ef730 T __ZNK7libfive10ObjectPoolIJNS_11SimplexLeafILj3EEENS_19SimplexLeafSubspaceILj3EEEEE10num_blocksEv
00000000000efa20 T __ZNK7libfive10ObjectPoolIJNS_11SimplexLeafILj3EEENS_19SimplexLeafSubspaceILj3EEEEE4nextEv
00000000000f0030 T __ZNK7libfive10ObjectPoolIJNS_11SimplexLeafILj3EEENS_19SimplexLeafSubspaceILj3EEEEE4sizeEv
00000000000ebd40 T __ZNK7libfive10ObjectPoolIJNS_11SimplexTreeILj2EEENS_11SimplexLeafILj2EEENS_19SimplexLeafSubspaceILj2EEEEE10num_blocksEv
00000000000eb0b0 T __ZNK7libfive10ObjectPoolIJNS_11SimplexTreeILj2EEENS_11SimplexLeafILj2EEENS_19SimplexLeafSubspaceILj2EEEEE4nextEv
00000000000ebbf0 T __ZNK7libfive10ObjectPoolIJNS_11SimplexTreeILj2EEENS_11SimplexLeafILj2EEENS_19SimplexLeafSubspaceILj2EEEEE4sizeEv
00000000000ef6c0 T __ZNK7libfive10ObjectPoolIJNS_11SimplexTreeILj3EEENS_11SimplexLeafILj3EEENS_19SimplexLeafSubspaceILj3EEEEE10num_blocksEv
00000000000eea30 T __ZNK7libfive10ObjectPoolIJNS_11SimplexTreeILj3EEENS_11SimplexLeafILj3EEENS_19SimplexLeafSubspaceILj3EEEEE4nextEv
00000000000ef570 T __ZNK7libfive10ObjectPoolIJNS_11SimplexTreeILj3EEENS_11SimplexLeafILj3EEENS_19SimplexLeafSubspaceILj3EEEEE4sizeEv
0000000000089320 T __ZNK7libfive10ObjectPoolIJNS_12IntersectionILj2EEEEE10num_blocksEv
00000000000894d0 T __ZNK7libfive10ObjectPoolIJNS_12IntersectionILj2EEEEE4nextEv
0000000000089870 T __ZNK7libfive10ObjectPoolIJNS_12IntersectionILj2EEEEE4sizeEv
000000000008cb00 T __ZNK7libfive10ObjectPoolIJNS_12IntersectionILj3EEEEE10num_blocksEv
000000000008ccb0 T __ZNK7libfive10ObjectPoolIJNS_12IntersectionILj3EEEEE4nextEv
000000000008d050 T __ZNK7libfive10ObjectPoolIJNS_12IntersectionILj3EEEEE4sizeEv
00000000000ec7f0 T __ZNK7libfive10ObjectPoolIJNS_19SimplexLeafSubspaceILj2EEEEE10num_blocksEv
00000000000ec9a0 T __ZNK7libfive10ObjectPoolIJNS_19SimplexLeafSubspaceILj2EEEEE4nextEv
00000000000ecd40 T __ZNK7libfive10ObjectPoolIJNS_19SimplexLeafSubspaceILj2EEEEE4sizeEv
00000000000f0170 T __ZNK7libfive10ObjectPoolIJNS_19SimplexLeafSubspaceILj3EEEEE10num_blocksEv
00000000000f0320 T __ZNK7libfive10ObjectPoolIJNS_19SimplexLeafSubspaceILj3EEEEE4nextEv
00000000000f06c0 T __ZNK7libfive10ObjectPoolIJNS_19SimplexLeafSubspaceILj3EEEEE4sizeEv
00000000000888e0 T __ZNK7libfive10ObjectPoolIJNS_6DCLeafILj2EEENS_12IntersectionILj2EEEEE10num_blocksEv
0000000000088bd0 T __ZNK7libfive10ObjectPoolIJNS_6DCLeafILj2EEENS_12IntersectionILj2EEEEE4nextEv
00000000000891e0 T __ZNK7libfive10ObjectPoolIJNS_6DCLeafILj2EEENS_12IntersectionILj2EEEEE4sizeEv
000000000008c0c0 T __ZNK7libfive10ObjectPoolIJNS_6DCLeafILj3EEENS_12IntersectionILj3EEEEE10num_blocksEv
000000000008c3b0 T __ZNK7libfive10ObjectPoolIJNS_6DCLeafILj3EEENS_12IntersectionILj3EEEEE4nextEv
000000000008c9c0 T __ZNK7libfive10ObjectPoolIJNS_6DCLeafILj3EEENS_12IntersectionILj3EEEEE4sizeEv
0000000000088870 T __ZNK7libfive10ObjectPoolIJNS_6DCTreeILj2EEENS_6DCLeafILj2EEENS_12IntersectionILj2EEEEE10num_blocksEv
0000000000087be0 T __ZNK7libfive10ObjectPoolIJNS_6DCTreeILj2EEENS_6DCLeafILj2EEENS_12IntersectionILj2EEEEE4nextEv
0000000000088720 T __ZNK7libfive10ObjectPoolIJNS_6DCTreeILj2EEENS_6DCLeafILj2EEENS_12IntersectionILj2EEEEE4sizeEv
000000000008c050 T __ZNK7libfive10ObjectPoolIJNS_6DCTreeILj3EEENS_6DCLeafILj3EEENS_12IntersectionILj3EEEEE10num_blocksEv
000000000008b3c0 T __ZNK7libfive10ObjectPoolIJNS_6DCTreeILj3EEENS_6DCLeafILj3EEENS_12IntersectionILj3EEEEE4nextEv
000000000008bf00 T __ZNK7libfive10ObjectPoolIJNS_6DCTreeILj3EEENS_6DCLeafILj3EEENS_12IntersectionILj3EEEEE4sizeEv
00000000000f9590 T __ZNK7libfive10ObjectPoolIJNS_7VolTreeEEE10num_blocksEv
00000000000f8c70 T __ZNK7libfive10ObjectPoolIJNS_7VolTreeEEE4nextEv
00000000000f9450 T __ZNK7libfive10ObjectPoolIJNS_7VolTreeEEE4sizeEv
00000000000621d0 T __ZNK7libfive11DCNeighborsILj2EE16checkConsistencyENS_11CornerIndexENS_8Interval5StateE
0000000000062170 T __ZNK7libfive11DCNeighborsILj2EE5checkENS_11CornerIndexE
00000000000622f0 T __ZNK7libfive11DCNeighborsILj2EE5checkEhh
0000000000062600 T __ZNK7libfive11DCNeighborsILj3EE16checkConsistencyENS_11CornerIndexENS_8Interval5StateE
0000000000062550 T __ZNK7libfive11DCNeighborsILj3EE5checkENS_11CornerIndexE
0000000000062850 T __ZNK7libfive11DCNeighborsILj3EE5checkEhh
00000000000da300 T __ZNK7libfive11SimplexTreeILj2EE11getLeafSubsEv
00000000000dad90 T __ZNK7libfive11SimplexTreeILj2EE13assignIndicesERKNS_12BRepSettingsE
00000000000dad60 T __ZNK7libfive11SimplexTreeILj2EE9leafLevelEv
00000000000e1590 T __ZNK7libfive11SimplexTreeILj3EE11getLeafSubsEv
00000000000e2530 T __ZNK7libfive11SimplexTreeILj3EE13assignIndicesERKNS_12BRepSettingsE
00000000000e2500 T __ZNK7libfive11SimplexTreeILj3EE9leafLevelEv
000000000011c9a0 T __ZNK7libfive12OracleClause5remapENS_4TreeES1_S1_S1_
00000000000d3d20 T __ZNK7libfive16SimplexNeighborsILj2EE11getSubspaceENS_13NeighborIndexE
00000000000d3eb0 T __ZNK7libfive16SimplexNeighborsILj2EE5checkENS_13NeighborIndexE
00000000000d40d0 T __ZNK7libfive16SimplexNeighborsILj3EE11getSubspaceENS_13NeighborIndexE
00000000000d43b0 T __ZNK7libfive16SimplexNeighborsILj3EE5checkENS_13NeighborIndexE
0000000000121b30 T __ZNK7libfive23TransformedOracleClause12dependenciesEv
0000000000121710 T __ZNK7libfive23TransformedOracleClause5remapENS_4TreeES1_S1_S1_
0000000000121520 T __ZNK7libfive23TransformedOracleClause9getOracleEv
00000000001222e0 T __ZNK7libfive23TransformedOracleClause9optimizedERNSt3__113unordered_mapINS_11TreeDataKeyENS_4TreeENS1_4hashIS3_EENS1_8equal_toIS3_EENS1_9allocatorINS1_4pairIKS3_S4_EEEEEE
0000000000121c90 T __ZNK7libfive23TransformedOracleClause9serializeERNS_10SerializerE
000000000004c4e0 T __ZNK7libfive4Mesh7saveSTLERKNSt3__112basic_stringIcNS1_11char_traitsIcEENS1_9allocatorIcEEEE
0000000000036d00 T __ZNK7libfive4Tape10getContextEj
0000000000105ba0 T __ZNK7libfive4Tree10cooptimizeERNSt3__113unordered_mapINS_11TreeDataKeyES0_NS1_4hashIS3_EENS1_8equal_toIS3_EENS1_9allocatorINS1_4pairIKS3_S0_EEEEEE
0000000000104d80 T __ZNK7libfive4Tree10with_flagsEj
0000000000105c70 T __ZNK7libfive4Tree12print_prefixERNSt3__113basic_ostreamIcNS1_11char_traitsIcEEEE
000000000010b1e0 T __ZNK7libfive4Tree13without_flagsEj
0000000000105a10 T __ZNK7libfive4Tree15with_const_varsEv
000000000010b2b0 T __ZNK7libfive4Tree16optimized_helperERNSt3__113unordered_mapINS_11TreeDataKeyES0_NS1_4hashIS3_EENS1_8equal_toIS3_EENS1_9allocatorINS1_4pairIKS3_S0_EEEEEE
0000000000105a60 T __ZNK7libfive4Tree2eqERKS0_
0000000000111430 T __ZNK7libfive4Tree4sizeEv
000000000010a530 T __ZNK7libfive4Tree4walkEv
0000000000107640 T __ZNK7libfive4Tree5applyES0_S0_
0000000000107280 T __ZNK7libfive4Tree5remapES0_S0_S0_
00000000001078d0 T __ZNK7libfive4Tree7flattenEv
0000000000107260 T __ZNK7libfive4Tree8is_validEv
000000000010b210 T __ZNK7libfive4Tree9optimizedEv
0000000000106e20 T __ZNK7libfive4Tree9serializeERNSt3__113basic_ostreamIcNS1_11char_traitsIcEEEE
0000000000105a30 T __ZNK7libfive4TreeeqERKS0_
0000000000105a50 T __ZNK7libfive4TreeltERKS0_
0000000000105a40 T __ZNK7libfive4TreeneERKS0_
00000000000c55f0 T __ZNK7libfive5XTreeILj2ENS_10HybridTreeILj2EEENS_10HybridLeafILj2EEEE12resetPendingEv
00000000000c55d0 T __ZNK7libfive5XTreeILj2ENS_10HybridTreeILj2EEENS_10HybridLeafILj2EEEE5childEj
00000000000c55c0 T __ZNK7libfive5XTreeILj2ENS_10HybridTreeILj2EEENS_10HybridLeafILj2EEEE8isBranchEv
00000000000ea8e0 T __ZNK7libfive5XTreeILj2ENS_11SimplexTreeILj2EEENS_11SimplexLeafILj2EEEE12resetPendingEv
00000000000ea8c0 T __ZNK7libfive5XTreeILj2ENS_11SimplexTreeILj2EEENS_11SimplexLeafILj2EEEE5childEj
00000000000ea8b0 T __ZNK7libfive5XTreeILj2ENS_11SimplexTreeILj2EEENS_11SimplexLeafILj2EEEE8isBranchEv
0000000000087080 T __ZNK7libfive5XTreeILj2ENS_6DCTreeILj2EEENS_6DCLeafILj2EEEE12resetPendingEv
0000000000087060 T __ZNK7libfive5XTreeILj2ENS_6DCTreeILj2EEENS_6DCLeafILj2EEEE5childEj
0000000000087050 T __ZNK7libfive5XTreeILj2ENS_6DCTreeILj2EEENS_6DCLeafILj2EEEE8isBranchEv
00000000000c5980 T __ZNK7libfive5XTreeILj3ENS_10HybridTreeILj3EEENS_10HybridLeafILj3EEEE12resetPendingEv
00000000000c5960 T __ZNK7libfive5XTreeILj3ENS_10HybridTreeILj3EEENS_10HybridLeafILj3EEEE5childEj
00000000000c5950 T __ZNK7libfive5XTreeILj3ENS_10HybridTreeILj3EEENS_10HybridLeafILj3EEEE8isBranchEv
00000000000eac70 T __ZNK7libfive5XTreeILj3ENS_11SimplexTreeILj3EEENS_11SimplexLeafILj3EEEE12resetPendingEv
00000000000eac50 T __ZNK7libfive5XTreeILj3ENS_11SimplexTreeILj3EEENS_11SimplexLeafILj3EEEE5childEj
00000000000eac40 T __ZNK7libfive5XTreeILj3ENS_11SimplexTreeILj3EEENS_11SimplexLeafILj3EEEE8isBranchEv
0000000000087580 T __ZNK7libfive5XTreeILj3ENS_6DCTreeILj3EEENS_6DCLeafILj3EEEE12resetPendingEv
0000000000087560 T __ZNK7libfive5XTreeILj3ENS_6DCTreeILj3EEENS_6DCLeafILj3EEEE5childEj
0000000000087550 T __ZNK7libfive5XTreeILj3ENS_6DCTreeILj3EEENS_6DCLeafILj3EEEE8isBranchEv
00000000000fa0a0 T __ZNK7libfive5XTreeILj3ENS_7VolTreeEvE12resetPendingEv
00000000000fa080 T __ZNK7libfive5XTreeILj3ENS_7VolTreeEvE5childEj
00000000000fa070 T __ZNK7libfive5XTreeILj3ENS_7VolTreeEvE8isBranchEv
000000000006a410 T __ZNK7libfive6DCTreeILj2EE10cornerMaskEv
000000000006a3f0 T __ZNK7libfive6DCTreeILj2EE10isManifoldEv
000000000006a190 T __ZNK7libfive6DCTreeILj2EE11cornerStateEh
000000000006b180 T __ZNK7libfive6DCTreeILj2EE12intersectionEj
000000000006b150 T __ZNK7libfive6DCTreeILj2EE12intersectionEjj
000000000006a4d0 T __ZNK7libfive6DCTreeILj2EE16checkConsistencyERKNS_11DCNeighborsILj2EEE
000000000006a4a0 T __ZNK7libfive6DCTreeILj2EE16checkConsistencyEv
000000000006a480 T __ZNK7libfive6DCTreeILj2EE4rankEv
000000000006a3d0 T __ZNK7libfive6DCTreeILj2EE4vertEj
000000000006a460 T __ZNK7libfive6DCTreeILj2EE5levelEv
0000000000083780 T __ZNK7libfive6DCTreeILj3EE10cornerMaskEv
0000000000083760 T __ZNK7libfive6DCTreeILj3EE10isManifoldEv
0000000000082e10 T __ZNK7libfive6DCTreeILj3EE11cornerStateEh
0000000000084720 T __ZNK7libfive6DCTreeILj3EE12intersectionEj
00000000000846f0 T __ZNK7libfive6DCTreeILj3EE12intersectionEjj
0000000000083850 T __ZNK7libfive6DCTreeILj3EE16checkConsistencyERKNS_11DCNeighborsILj3EEE
0000000000083810 T __ZNK7libfive6DCTreeILj3EE16checkConsistencyEv
00000000000837f0 T __ZNK7libfive6DCTreeILj3EE4rankEv
0000000000083730 T __ZNK7libfive6DCTreeILj3EE4vertEj
00000000000837d0 T __ZNK7libfive6DCTreeILj3EE5levelEv
0000000000040380 T __ZNK7libfive6Voxels4View6voxelsEv
0000000000040120 T __ZNK7libfive6Voxels4viewEv
0000000000037830 T __ZNK7libfive7Feature5checkERKN5Eigen6MatrixIfLi3ELi1ELi0ELi3ELi1EEEPb
0000000000038570 T __ZNK7libfive7Feature5checkERKS0_
00000000000387b0 T __ZNK7libfive7FeatureltERKS0_
00000000000facb0 T __ZNK7libfive7VolTree4pushEjRKN5Eigen5ArrayIdLi0ELi1ELi0ELi0ELi1EEE
00000000000fac60 T __ZNK7libfive7VolTree4pushEjRKN5Eigen5ArrayIdLi1ELi1ELi0ELi1ELi1EEE
00000000000fab30 T __ZNK7libfive7VolTree5checkERKNS_6RegionILj2EEE
00000000000faad0 T __ZNK7libfive7VolTree5checkERKNS_6RegionILj3EEE
00000000000fab90 T __ZNK7libfive7VolTree8containsERKNS_6RegionILj2EEE
00000000000fabf0 T __ZNK7libfive7VolTree8containsERKNS_6RegionILj3EEE
00000000001016b0 T __ZNK7libfive8TreeData12build_oracleEv
0000000000101890 T __ZNK7libfive8TreeData13compute_flagsEv
0000000000101710 T __ZNK7libfive8TreeData13oracle_clauseEv
0000000000101570 T __ZNK7libfive8TreeData2opEv
0000000000101760 T __ZNK7libfive8TreeData3keyEv
00000000001015c0 T __ZNK7libfive8TreeData3lhsEv
0000000000101610 T __ZNK7libfive8TreeData3rhsEv
0000000000101660 T __ZNK7libfive8TreeData5valueEv
0000000000095c50 T __ZNK7libfive9NeighborsILj2ENS_10HybridTreeILj2EEENS_15HybridNeighborsILj2EEEE4pushEhRKNSt3__15arrayINS6_6atomicIPS2_EELm4EEE
00000000000d3b10 T __ZNK7libfive9NeighborsILj2ENS_11SimplexTreeILj2EEENS_16SimplexNeighborsILj2EEEE4pushEhRKNSt3__15arrayINS6_6atomicIPS2_EELm4EEE
0000000000061f60 T __ZNK7libfive9NeighborsILj2ENS_6DCTreeILj2EEENS_11DCNeighborsILj2EEEE4pushEhRKNSt3__15arrayINS6_6atomicIPS2_EELm4EEE
0000000000095ee0 T __ZNK7libfive9NeighborsILj3ENS_10HybridTreeILj3EEENS_15HybridNeighborsILj3EEEE4pushEhRKNSt3__15arrayINS6_6atomicIPS2_EELm8EEE
00000000000d3fa0 T __ZNK7libfive9NeighborsILj3ENS_11SimplexTreeILj3EEENS_16SimplexNeighborsILj3EEEE4pushEhRKNSt3__15arrayINS6_6atomicIPS2_EELm8EEE
0000000000062420 T __ZNK7libfive9NeighborsILj3ENS_6DCTreeILj3EEENS_11DCNeighborsILj3EEEE4pushEhRKNSt3__15arrayINS6_6atomicIPS2_EELm8EEE
00000000000f8a30 T __ZNK7libfive9NeighborsILj3ENS_7VolTreeENS_12VolNeighborsEE4pushEhRKNSt3__15arrayINS4_6atomicIPS1_EELm8EEE
0000000000112980 T __ZNSt3__116__variant_detail12__visitation6__base12__dispatcherIJLm0ELm0EEE10__dispatchB6v15006IONS1_9__variant15__value_visitorINS_17__convert_to_boolINS_8equal_toIvEEEEEEJRKNS0_6__baseILNS0_6_TraitE0EJbfN7libfive6Opcode6OpcodeENS_5tupleIJSI_PKNSG_8TreeDataEEEENSJ_IJSI_SM_SM_EEENSJ_IJSM_SM_SM_SM_EEENSJ_IJSM_SM_SM_EEEPKNSG_12OracleClauseEEEESW_EEEDcT_DpT0_
0000000000111d20 T __ZNSt3__116__variant_detail12__visitation6__base12__dispatcherIJLm0ELm0EEE10__dispatchB6v15006IOZNS0_6__ctorINS0_8__traitsIJN7libfive12TreeNonaryOpENS8_11TreeUnaryOpENS8_12TreeBinaryOpENS8_12TreeConstantENS8_10TreeOracleENS8_9TreeRemapENS8_9TreeApplyENS8_11TreeInvalidEEEEE19__generic_constructB6v15006INS0_18__move_constructorISH_LNS0_6_TraitE1EEEEEvRSI_OT_EUlRSO_OT0_E_JRNS0_6__baseILSL_1EJS9_SA_SB_SC_SD_SE_SF_SG_EEEOSW_EEEDcSO_DpT0_
0000000000112990 T __ZNSt3__116__variant_detail12__visitation6__base12__dispatcherIJLm1ELm1EEE10__dispatchB6v15006IONS1_9__variant15__value_visitorINS_17__convert_to_boolINS_8equal_toIvEEEEEEJRKNS0_6__baseILNS0_6_TraitE0EJbfN7libfive6Opcode6OpcodeENS_5tupleIJSI_PKNSG_8TreeDataEEEENSJ_IJSI_SM_SM_EEENSJ_IJSM_SM_SM_SM_EEENSJ_IJSM_SM_SM_EEEPKNSG_12OracleClauseEEEESW_EEEDcT_DpT0_
0000000000111d30 T __ZNSt3__116__variant_detail12__visitation6__base12__dispatcherIJLm1ELm1EEE10__dispatchB6v15006IOZNS0_6__ctorINS0_8__traitsIJN7libfive12TreeNonaryOpENS8_11TreeUnaryOpENS8_12TreeBinaryOpENS8_12TreeConstantENS8_10TreeOracleENS8_9TreeRemapENS8_9TreeApplyENS8_11TreeInvalidEEEEE19__generic_constructB6v15006INS0_18__move_constructorISH_LNS0_6_TraitE1EEEEEvRSI_OT_EUlRSO_OT0_E_JRNS0_6__baseILSL_1EJS9_SA_SB_SC_SD_SE_SF_SG_EEEOSW_EEEDcSO_DpT0_
00000000001129b0 T __ZNSt3__116__variant_detail12__visitation6__base12__dispatcherIJLm2ELm2EEE10__dispatchB6v15006IONS1_9__variant15__value_visitorINS_17__convert_to_boolINS_8equal_toIvEEEEEEJRKNS0_6__baseILNS0_6_TraitE0EJbfN7libfive6Opcode6OpcodeENS_5tupleIJSI_PKNSG_8TreeDataEEEENSJ_IJSI_SM_SM_EEENSJ_IJSM_SM_SM_SM_EEENSJ_IJSM_SM_SM_EEEPKNSG_12OracleClauseEEEESW_EEEDcT_DpT0_
0000000000111d50 T __ZNSt3__116__variant_detail12__visitation6__base12__dispatcherIJLm2ELm2EEE10__dispatchB6v15006IOZNS0_6__ctorINS0_8__traitsIJN7libfive12TreeNonaryOpENS8_11TreeUnaryOpENS8_12TreeBinaryOpENS8_12TreeConstantENS8_10TreeOracleENS8_9TreeRemapENS8_9TreeApplyENS8_11TreeInvalidEEEEE19__generic_constructB6v15006INS0_18__move_constructorISH_LNS0_6_TraitE1EEEEEvRSI_OT_EUlRSO_OT0_E_JRNS0_6__baseILSL_1EJS9_SA_SB_SC_SD_SE_SF_SG_EEEOSW_EEEDcSO_DpT0_
00000000001129c0 T __ZNSt3__116__variant_detail12__visitation6__base12__dispatcherIJLm3ELm3EEE10__dispatchB6v15006IONS1_9__variant15__value_visitorINS_17__convert_to_boolINS_8equal_toIvEEEEEEJRKNS0_6__baseILNS0_6_TraitE0EJbfN7libfive6Opcode6OpcodeENS_5tupleIJSI_PKNSG_8TreeDataEEEENSJ_IJSI_SM_SM_EEENSJ_IJSM_SM_SM_SM_EEENSJ_IJSM_SM_SM_EEEPKNSG_12OracleClauseEEEESW_EEEDcT_DpT0_
0000000000111d90 T __ZNSt3__116__variant_detail12__visitation6__base12__dispatcherIJLm3ELm3EEE10__dispatchB6v15006IOZNS0_6__ctorINS0_8__traitsIJN7libfive12TreeNonaryOpENS8_11TreeUnaryOpENS8_12TreeBinaryOpENS8_12TreeConstantENS8_10TreeOracleENS8_9TreeRemapENS8_9TreeApplyENS8_11TreeInvalidEEEEE19__generic_constructB6v15006INS0_18__move_constructorISH_LNS0_6_TraitE1EEEEEvRSI_OT_EUlRSO_OT0_E_JRNS0_6__baseILSL_1EJS9_SA_SB_SC_SD_SE_SF_SG_EEEOSW_EEEDcSO_DpT0_
00000000001129e0 T __ZNSt3__116__variant_detail12__visitation6__base12__dispatcherIJLm4ELm4EEE10__dispatchB6v15006IONS1_9__variant15__value_visitorINS_17__convert_to_boolINS_8equal_toIvEEEEEEJRKNS0_6__baseILNS0_6_TraitE0EJbfN7libfive6Opcode6OpcodeENS_5tupleIJSI_PKNSG_8TreeDataEEEENSJ_IJSI_SM_SM_EEENSJ_IJSM_SM_SM_SM_EEENSJ_IJSM_SM_SM_EEEPKNSG_12OracleClauseEEEESW_EEEDcT_DpT0_
0000000000111da0 T __ZNSt3__116__variant_detail12__visitation6__base12__dispatcherIJLm4ELm4EEE10__dispatchB6v15006IOZNS0_6__ctorINS0_8__traitsIJN7libfive12TreeNonaryOpENS8_11TreeUnaryOpENS8_12TreeBinaryOpENS8_12TreeConstantENS8_10TreeOracleENS8_9TreeRemapENS8_9TreeApplyENS8_11TreeInvalidEEEEE19__generic_constructB6v15006INS0_18__move_constructorISH_LNS0_6_TraitE1EEEEEvRSI_OT_EUlRSO_OT0_E_JRNS0_6__baseILSL_1EJS9_SA_SB_SC_SD_SE_SF_SG_EEEOSW_EEEDcSO_DpT0_
0000000000112a10 T __ZNSt3__116__variant_detail12__visitation6__base12__dispatcherIJLm5ELm5EEE10__dispatchB6v15006IONS1_9__variant15__value_visitorINS_17__convert_to_boolINS_8equal_toIvEEEEEEJRKNS0_6__baseILNS0_6_TraitE0EJbfN7libfive6Opcode6OpcodeENS_5tupleIJSI_PKNSG_8TreeDataEEEENSJ_IJSI_SM_SM_EEENSJ_IJSM_SM_SM_SM_EEENSJ_IJSM_SM_SM_EEEPKNSG_12OracleClauseEEEESW_EEEDcT_DpT0_
0000000000111dc0 T __ZNSt3__116__variant_detail12__visitation6__base12__dispatcherIJLm5ELm5EEE10__dispatchB6v15006IOZNS0_6__ctorINS0_8__traitsIJN7libfive12TreeNonaryOpENS8_11TreeUnaryOpENS8_12TreeBinaryOpENS8_12TreeConstantENS8_10TreeOracleENS8_9TreeRemapENS8_9TreeApplyENS8_11TreeInvalidEEEEE19__generic_constructB6v15006INS0_18__move_constructorISH_LNS0_6_TraitE1EEEEEvRSI_OT_EUlRSO_OT0_E_JRNS0_6__baseILSL_1EJS9_SA_SB_SC_SD_SE_SF_SG_EEEOSW_EEEDcSO_DpT0_
0000000000112a40 T __ZNSt3__116__variant_detail12__visitation6__base12__dispatcherIJLm6ELm6EEE10__dispatchB6v15006IONS1_9__variant15__value_visitorINS_17__convert_to_boolINS_8equal_toIvEEEEEEJRKNS0_6__baseILNS0_6_TraitE0EJbfN7libfive6Opcode6OpcodeENS_5tupleIJSI_PKNSG_8TreeDataEEEENSJ_IJSI_SM_SM_EEENSJ_IJSM_SM_SM_SM_EEENSJ_IJSM_SM_SM_EEEPKNSG_12OracleClauseEEEESW_EEEDcT_DpT0_
0000000000111e20 T __ZNSt3__116__variant_detail12__visitation6__base12__dispatcherIJLm6ELm6EEE10__dispatchB6v15006IOZNS0_6__ctorINS0_8__traitsIJN7libfive12TreeNonaryOpENS8_11TreeUnaryOpENS8_12TreeBinaryOpENS8_12TreeConstantENS8_10TreeOracleENS8_9TreeRemapENS8_9TreeApplyENS8_11TreeInvalidEEEEE19__generic_constructB6v15006INS0_18__move_constructorISH_LNS0_6_TraitE1EEEEEvRSI_OT_EUlRSO_OT0_E_JRNS0_6__baseILSL_1EJS9_SA_SB_SC_SD_SE_SF_SG_EEEOSW_EEEDcSO_DpT0_
0000000000112a70 T __ZNSt3__116__variant_detail12__visitation6__base12__dispatcherIJLm7ELm7EEE10__dispatchB6v15006IONS1_9__variant15__value_visitorINS_17__convert_to_boolINS_8equal_toIvEEEEEEJRKNS0_6__baseILNS0_6_TraitE0EJbfN7libfive6Opcode6OpcodeENS_5tupleIJSI_PKNSG_8TreeDataEEEENSJ_IJSI_SM_SM_EEENSJ_IJSM_SM_SM_SM_EEENSJ_IJSM_SM_SM_EEEPKNSG_12OracleClauseEEEESW_EEEDcT_DpT0_
0000000000111e70 T __ZNSt3__116__variant_detail12__visitation6__base12__dispatcherIJLm7ELm7EEE10__dispatchB6v15006IOZNS0_6__ctorINS0_8__traitsIJN7libfive12TreeNonaryOpENS8_11TreeUnaryOpENS8_12TreeBinaryOpENS8_12TreeConstantENS8_10TreeOracleENS8_9TreeRemapENS8_9TreeApplyENS8_11TreeInvalidEEEEE19__generic_constructB6v15006INS0_18__move_constructorISH_LNS0_6_TraitE1EEEEEvRSI_OT_EUlRSO_OT0_E_JRNS0_6__baseILSL_1EJS9_SA_SB_SC_SD_SE_SF_SG_EEEOSW_EEEDcSO_DpT0_
000000000013ab80 S __ZTIFNSt3__110unique_ptrIKN7libfive12OracleClauseENS_14default_deleteIS3_EEEERNS1_12DeserializerEE
00000000001396d8 S __ZTIN5boost10wrapexceptISt13runtime_errorEE
00000000001396b8 S __ZTIN5boost16exception_detail10clone_baseE
00000000001394d8 S __ZTIN5boost9container12length_errorE
0000000000139ed8 S __ZTIN5boost9container12out_of_rangeE
0000000000139908 S __ZTIN5boost9container9bad_allocE
00000000001394c0 S __ZTIN5boost9container9exceptionE
00000000001396c8 S __ZTIN5boost9exceptionE
000000000013a840 S __ZTIN7libfive12OracleClauseE
0000000000139180 S __ZTIN7libfive13BaseEvaluatorE
000000000013a8c0 S __ZTIN7libfive13OracleContextE
000000000013a8f8 S __ZTIN7libfive13OracleStorageILi256EEE
00000000001392e8 S __ZTIN7libfive14ArrayEvaluatorE
0000000000139c40 S __ZTIN7libfive15ProgressHandlerE
0000000000139328 S __ZTIN7libfive16FeatureEvaluatorE
0000000000139190 S __ZTIN7libfive17IntervalEvaluatorE
0000000000139370 S __ZTIN7libfive17JacobianEvaluatorE
000000000013a8d0 S __ZTIN7libfive17TransformedOracle7ContextE
000000000013a910 S __ZTIN7libfive17TransformedOracleE
0000000000139310 S __ZTIN7libfive19DerivArrayEvaluatorE
000000000013aa58 S __ZTIN7libfive23TransformedOracleClauseE
000000000013a8e8 S __ZTIN7libfive6OracleE
000000000013a640 S __ZTIN7libfive8TreeData14ApplyExceptionE
000000000013a568 S __ZTIN7libfive8TreeData14ChildExceptionE
000000000013a580 S __ZTIN7libfive8TreeData14ValueExceptionE
000000000013a598 S __ZTIN7libfive8TreeData15OracleExceptionE
000000000013a628 S __ZTIN7libfive8TreeData16InvalidExceptionE
0000000000139638 S __ZTIN7libfive9EvaluatorE
0000000000139888 S __ZTINSt3__110__function6__baseIFN7libfive11DCContourerERNS2_13PerThreadBRepILj2EEEiEEE
0000000000139be0 S __ZTINSt3__110__function6__baseIFN7libfive12HybridMesherERNS2_13PerThreadBRepILj3EEEiEEE
0000000000139b08 S __ZTINSt3__110__function6__baseIFN7libfive13SimplexMesherERNS2_13PerThreadBRepILj3EEEiEEE
0000000000139260 S __ZTINSt3__110__function6__baseIFN7libfive4Tape4KeepENS2_6Opcode6OpcodeEjjjEEE
0000000000139a30 S __ZTINSt3__110__function6__baseIFN7libfive8DCMesherERNS2_13PerThreadBRepILj3EEEiEEE
000000000013ab58 S __ZTINSt3__110__function6__baseIFNS_10unique_ptrIKN7libfive12OracleClauseENS_14default_deleteIS5_EEEERNS3_12DeserializerEEEE
000000000013aac8 S __ZTINSt3__110__function6__baseIFbPKN7libfive12OracleClauseERNS2_10SerializerEEEE
000000000013ab68 S __ZTINSt3__110__function6__funcIPFNS_10unique_ptrIKN7libfive12OracleClauseENS_14default_deleteIS5_EEEERNS3_12DeserializerEENS_9allocatorISC_EESB_EE
000000000013aad8 S __ZTINSt3__110__function6__funcIZN7libfive12OracleClause7installINS2_23TransformedOracleClauseEEEvRKNS_12basic_stringIcNS_11char_traitsIcEENS_9allocatorIcEEEEEUlPKS3_RNS2_10SerializerEE_NS9_ISI_EEFbSF_SH_EEE
0000000000139898 S __ZTINSt3__110__function6__funcIZN7libfive4DualILj2EE4walkINS2_11DCContourerEJEEENS_10unique_ptrINT_6OutputENS_14default_deleteIS9_EEEERKNS2_4RootINS8_5InputEEERKNS2_12BRepSettingsEDpT0_EUlRNS2_13PerThreadBRepILj2EEEiE_NS_9allocatorISQ_EEFS6_SP_iEEE
0000000000139a40 S __ZTINSt3__110__function6__funcIZN7libfive4DualILj3EE4walkINS2_8DCMesherEJEEENS_10unique_ptrINT_6OutputENS_14default_deleteIS9_EEEERKNS2_4RootINS8_5InputEEERKNS2_12BRepSettingsEDpT0_EUlRNS2_13PerThreadBRepILj3EEEiE_NS_9allocatorISQ_EEFS6_SP_iEEE
0000000000139518 S __ZTINSt3__117bad_function_callE
000000000013a230 S __ZTINSt3__120__shared_ptr_emplaceIN7libfive13NeighborStackILj2EEENS_9allocatorIS3_EEEE
000000000013a2c8 S __ZTINSt3__120__shared_ptr_emplaceIN7libfive13NeighborStackILj3EEENS_9allocatorIS3_EEEE
0000000000139fe0 S __ZTINSt3__120__shared_ptr_emplaceIN7libfive15AssignIndexTaskILj2EEENS_9allocatorIS3_EEEE
000000000013a030 S __ZTINSt3__120__shared_ptr_emplaceIN7libfive15AssignIndexTaskILj3EEENS_9allocatorIS3_EEEE
00000000001391f0 S __ZTINSt3__120__shared_ptr_emplaceIN7libfive4DeckENS_9allocatorIS2_EEEE
000000000013a7e0 S __ZTINSt3__120__shared_ptr_emplaceINS_13unordered_mapIPKN7libfive8TreeDataENS2_4TreeENS_4hashIS5_EENS_8equal_toIS5_EENS_9allocatorINS_4pairIKS5_S6_EEEEEENSB_ISG_EEEE
000000000013a9f8 S __ZTINSt3__120__shared_ptr_pointerIPN7libfive17TransformedOracle7ContextENS_10shared_ptrIS3_E27__shared_ptr_default_deleteIS3_S3_EENS_9allocatorIS3_EEEE
0000000000139150 S __ZTINSt3__120__shared_ptr_pointerIPN7libfive4TapeENS_10shared_ptrIS2_E27__shared_ptr_default_deleteIS2_S2_EENS_9allocatorIS2_EEEE
000000000013ab90 S __ZTIPFNSt3__110unique_ptrIKN7libfive12OracleClauseENS_14default_deleteIS3_EEEERNS1_12DeserializerEE
000000000013aaf0 S __ZTIZN7libfive12OracleClause7installINS_23TransformedOracleClauseEEEvRKNSt3__112basic_stringIcNS3_11char_traitsIcEENS3_9allocatorIcEEEEEUlPKS0_RNS_10SerializerEE_
00000000001398b0 S __ZTIZN7libfive4DualILj2EE4walkINS_11DCContourerEJEEENSt3__110unique_ptrINT_6OutputENS4_14default_deleteIS7_EEEERKNS_4RootINS6_5InputEEERKNS_12BRepSettingsEDpT0_EUlRNS_13PerThreadBRepILj2EEEiE_
0000000000139a58 S __ZTIZN7libfive4DualILj3EE4walkINS_8DCMesherEJEEENSt3__110unique_ptrINT_6OutputENS4_14default_deleteIS7_EEEERKNS_4RootINS6_5InputEEERKNS_12BRepSettingsEDpT0_EUlRNS_13PerThreadBRepILj3EEEiE_
00000000001352e3 S __ZTSFNSt3__110unique_ptrIKN7libfive12OracleClauseENS_14default_deleteIS3_EEEERNS1_12DeserializerEE
0000000000133b80 S __ZTSN5boost10wrapexceptISt13runtime_errorEE
0000000000133ba8 S __ZTSN5boost16exception_detail10clone_baseE
00000000001306a0 S __ZTSN5boost9container12length_errorE
0000000000132a10 S __ZTSN5boost9container12out_of_rangeE
00000000001329f0 S __ZTSN5boost9container9bad_allocE
0000000000134c62 S __ZTSN5boost9container9exceptionE
00000000001308d5 S __ZTSN5boost9exceptionE
0000000000134c90 S __ZTSN7libfive12OracleClauseE
000000000012f7d8 S __ZTSN7libfive13BaseEvaluatorE
0000000000134dc0 S __ZTSN7libfive13OracleContextE
0000000000134e1e S __ZTSN7libfive13OracleStorageILi256EEE
00000000001303e0 S __ZTSN7libfive14ArrayEvaluatorE
0000000000131501 S __ZTSN7libfive15ProgressHandlerE
000000000012f7a0 S __ZTSN7libfive16FeatureEvaluatorE
000000000012f610 S __ZTSN7libfive17IntervalEvaluatorE
000000000012f7f2 S __ZTSN7libfive17JacobianEvaluatorE
0000000000134dda S __ZTSN7libfive17TransformedOracle7ContextE
0000000000134e00 S __ZTSN7libfive17TransformedOracleE
0000000000134e70 S __ZTSN7libfive19DerivArrayEvaluatorE
0000000000134fa0 S __ZTSN7libfive23TransformedOracleClauseE
0000000000134e40 S __ZTSN7libfive6OracleE
0000000000134b86 S __ZTSN7libfive8TreeData14ApplyExceptionE
0000000000134ac0 S __ZTSN7libfive8TreeData14ChildExceptionE
0000000000134ae4 S __ZTSN7libfive8TreeData14ValueExceptionE
0000000000134b08 S __ZTSN7libfive8TreeData15OracleExceptionE
0000000000134b60 S __ZTSN7libfive8TreeData16InvalidExceptionE
00000000001306f0 S __ZTSN7libfive9EvaluatorE
0000000000130afa S __ZTSNSt3__110__function6__baseIFN7libfive11DCContourerERNS2_13PerThreadBRepILj2EEEiEEE
000000000013145a S __ZTSNSt3__110__function6__baseIFN7libfive12HybridMesherERNS2_13PerThreadBRepILj3EEEiEEE
00000000001311f9 S __ZTSNSt3__110__function6__baseIFN7libfive13SimplexMesherERNS2_13PerThreadBRepILj3EEEiEEE
000000000012f6c7 S __ZTSNSt3__110__function6__baseIFN7libfive4Tape4KeepENS2_6Opcode6OpcodeEjjjEEE
0000000000130f36 S __ZTSNSt3__110__function6__baseIFN7libfive8DCMesherERNS2_13PerThreadBRepILj3EEEiEEE
000000000013520b S __ZTSNSt3__110__function6__baseIFNS_10unique_ptrIKN7libfive12OracleClauseENS_14default_deleteIS5_EEEERNS3_12DeserializerEEEE
000000000013508f S __ZTSNSt3__110__function6__baseIFbPKN7libfive12OracleClauseERNS2_10SerializerEEEE
000000000013517c S __ZTSNSt3__110__function6__funcIPFNS_10unique_ptrIKN7libfive12OracleClauseENS_14default_deleteIS5_EEEERNS3_12DeserializerEENS_9allocatorISC_EESB_EE
0000000000134fc4 S __ZTSNSt3__110__function6__funcIZN7libfive12OracleClause7installINS2_23TransformedOracleClauseEEEvRKNS_12basic_stringIcNS_11char_traitsIcEENS_9allocatorIcEEEEEUlPKS3_RNS2_10SerializerEE_NS9_ISI_EEFbSF_SH_EEE
0000000000130a05 S __ZTSNSt3__110__function6__funcIZN7libfive4DualILj2EE4walkINS2_11DCContourerEJEEENS_10unique_ptrINT_6OutputENS_14default_deleteIS9_EEEERKNS2_4RootINS8_5InputEEERKNS2_12BRepSettingsEDpT0_EUlRNS2_13PerThreadBRepILj2EEEiE_NS_9allocatorISQ_EEFS6_SP_iEEE
0000000000130e45 S __ZTSNSt3__110__function6__funcIZN7libfive4DualILj3EE4walkINS2_8DCMesherEJEEENS_10unique_ptrINT_6OutputENS_14default_deleteIS9_EEEERKNS2_4RootINS8_5InputEEERKNS2_12BRepSettingsEDpT0_EUlRNS2_13PerThreadBRepILj3EEEiE_NS_9allocatorISQ_EEFS6_SP_iEEE
0000000000134f2a S __ZTSNSt3__110shared_ptrIN7libfive17TransformedOracle7ContextEE27__shared_ptr_default_deleteIS3_S3_EE
000000000012f573 S __ZTSNSt3__110shared_ptrIN7libfive4TapeEE27__shared_ptr_default_deleteIS2_S2_EE
0000000000130548 S __ZTSNSt3__117bad_function_callE
0000000000133be2 S __ZTSNSt3__120__shared_ptr_emplaceIN7libfive13NeighborStackILj2EEENS_9allocatorIS3_EEEE
0000000000133de2 S __ZTSNSt3__120__shared_ptr_emplaceIN7libfive13NeighborStackILj3EEENS_9allocatorIS3_EEEE
0000000000132d00 S __ZTSNSt3__120__shared_ptr_emplaceIN7libfive15AssignIndexTaskILj2EEENS_9allocatorIS3_EEEE
0000000000132ec0 S __ZTSNSt3__120__shared_ptr_emplaceIN7libfive15AssignIndexTaskILj3EEENS_9allocatorIS3_EEEE
0000000000130880 S __ZTSNSt3__120__shared_ptr_emplaceIN7libfive4DeckENS_9allocatorIS2_EEEE
0000000000134bbf S __ZTSNSt3__120__shared_ptr_emplaceINS_13unordered_mapIPKN7libfive8TreeDataENS2_4TreeENS_4hashIS5_EENS_8equal_toIS5_EENS_9allocatorINS_4pairIKS5_S6_EEEEEENSB_ISG_EEEE
0000000000134e96 S __ZTSNSt3__120__shared_ptr_pointerIPN7libfive17TransformedOracle7ContextENS_10shared_ptrIS3_E27__shared_ptr_default_deleteIS3_S3_EENS_9allocatorIS3_EEEE
000000000012f4f5 S __ZTSNSt3__120__shared_ptr_pointerIPN7libfive4TapeENS_10shared_ptrIS2_E27__shared_ptr_default_deleteIS2_S2_EENS_9allocatorIS2_EEEE
0000000000135283 S __ZTSPFNSt3__110unique_ptrIKN7libfive12OracleClauseENS_14default_deleteIS3_EEEERNS1_12DeserializerEE
00000000001350dd S __ZTSZN7libfive12OracleClause7installINS_23TransformedOracleClauseEEEvRKNSt3__112basic_stringIcNS3_11char_traitsIcEENS3_9allocatorIcEEEEEUlPKS0_RNS_10SerializerEE_
0000000000130b4d S __ZTSZN7libfive4DualILj2EE4walkINS_11DCContourerEJEEENSt3__110unique_ptrINT_6OutputENS4_14default_deleteIS7_EEEERKNS_4RootINS6_5InputEEERKNS_12BRepSettingsEDpT0_EUlRNS_13PerThreadBRepILj2EEEiE_
0000000000130f85 S __ZTSZN7libfive4DualILj3EE4walkINS_8DCMesherEJEEENSt3__110unique_ptrINT_6OutputENS4_14default_deleteIS7_EEEERKNS_4RootINS6_5InputEEERKNS_12BRepSettingsEDpT0_EUlRNS_13PerThreadBRepILj3EEEiE_
000000000013a7f8 S __ZTVN7libfive12OracleClauseE
0000000000139c18 S __ZTVN7libfive15ProgressHandlerE
000000000013a928 S __ZTVN7libfive17TransformedOracle7ContextE
000000000013a850 S __ZTVN7libfive17TransformedOracleE
000000000013aa10 S __ZTVN7libfive23TransformedOracleClauseE
000000000015ff18 D __ZZN5Eigen8internal20manage_caching_sizesENS_6ActionEPlS2_S2_E12m_cacheSizes
000000000013c128 D __ZZN7libfive10EdgeTablesILj2EE8instanceEvE9singleton
000000000013c568 D __ZZN7libfive10EdgeTablesILj3EE8instanceEvE9singleton
000000000015ff38 D __ZZN7libfive12OracleClause9installedEvE1m
00000000001417c0 D __ZZN7libfive13MarchingTableILj2EE8instanceEvE9singleton
0000000000141e08 D __ZZN7libfive13MarchingTableILj3EE8instanceEvE9singleton
000000000013e8e0 D __ZZN7libfive14ManifoldTablesILj2EE8manifoldEjE9singleton
000000000013e918 D __ZZN7libfive14ManifoldTablesILj3EE8manifoldEjE9singleton
000000000013eaa0 D __ZZN7libfive14NeighborTablesILj2EE8instanceEvE9singleton
000000000013f040 D __ZZN7libfive14NeighborTablesILj3EE8instanceEvE9singleton
000000000013c010 D __ZZN7libfive6DCTreeILj2EE14singletonEmptyEvE5empty
000000000013c0a0 D __ZZN7libfive6DCTreeILj2EE15singletonFilledEvE6filled
000000000013e950 D __ZZN7libfive6DCTreeILj3EE14singletonEmptyEvE5empty
000000000013e9f8 D __ZZN7libfive6DCTreeILj3EE15singletonFilledEvE6filled
000000000013c000 D __ZZN7libfive8Interval3powERKS0_S2_E19nanOnZeroToNegative
0000000000122c50 T _libfive_contours3_delete
0000000000122be0 T _libfive_contours_delete
0000000000126e70 T _libfive_evaluator_delete
0000000000125b00 T _libfive_evaluator_save_mesh
0000000000126c40 T _libfive_evaluator_update_vars
0000000000123ff0 T _libfive_free_str
0000000000126f60 T _libfive_git_branch
0000000000126f50 T _libfive_git_revision
0000000000126f40 T _libfive_git_version
0000000000122d00 T _libfive_mesh_coords_delete
0000000000122cc0 T _libfive_mesh_delete
0000000000122e90 T _libfive_opcode_args
0000000000122db0 T _libfive_opcode_enum
0000000000122d40 T _libfive_pixels_delete
00000000001231c0 T _libfive_tree_binary
0000000000122fa0 T _libfive_tree_const
00000000001232b0 T _libfive_tree_delete
0000000000123b40 T _libfive_tree_eval_d
0000000000123860 T _libfive_tree_eval_f
00000000001239a0 T _libfive_tree_eval_r
0000000000126970 T _libfive_tree_evaluator
0000000000123060 T _libfive_tree_get_const
00000000001232a0 T _libfive_tree_id
0000000000123040 T _libfive_tree_is_var
0000000000123550 T _libfive_tree_load
00000000001230a0 T _libfive_tree_nullary
00000000001237e0 T _libfive_tree_optimized
0000000000123d50 T _libfive_tree_print
00000000001236d0 T _libfive_tree_remap
00000000001246e0 T _libfive_tree_render_mesh
0000000000124f10 T _libfive_tree_render_mesh_coords
0000000000125fd0 T _libfive_tree_render_pixels
0000000000124000 T _libfive_tree_render_slice
0000000000124260 T _libfive_tree_render_slice3
00000000001232e0 T _libfive_tree_save
0000000000125900 T _libfive_tree_save_mesh
0000000000125cc0 T _libfive_tree_save_meshes
00000000001244e0 T _libfive_tree_save_slice
0000000000123110 T _libfive_tree_unary
0000000000122ff0 T _libfive_tree_var
0000000000122eb0 T _libfive_tree_x
0000000000122f00 T _libfive_tree_y
0000000000122f50 T _libfive_tree_z
0000000000122d70 T _libfive_vars_delete
